# SymbolsHelper-Confirmed: 5.9.0 amd64
libQt53DQuickScene2D.so.5 libqt53dquickscene2d5 #MINVER#
 Qt_5.0@Qt_5.0 5.9.0
 Qt_5.1@Qt_5.1 5.9.0
 Qt_5.2@Qt_5.2 5.9.0
 Qt_5.3@Qt_5.3 5.9.0
 Qt_5.4@Qt_5.4 5.9.0
 Qt_5.5@Qt_5.5 5.9.0
 Qt_5.6@Qt_5.6 5.9.0
 Qt_5.7@Qt_5.7 5.9.0
 Qt_5.8@Qt_5.8 5.9.0
 Qt_5.9@Qt_5.9 5.9.0
 Qt_5@Qt_5 5.9.0
 Qt_5_PRIVATE_API@Qt_5_PRIVATE_API 5.9.0
 _ZN10Qt3DRender5Quick25Quick3DScene2D_initializeEv@Qt_5 5.9.0
 _ZN10Qt3DRender5Quick27Quick3DScene2D_registerTypeEPKcS2_ii@Qt_5 5.9.0
 _ZN10Qt3DRender5Quick8QScene2D11itemChangedEP10QQuickItem@Qt_5 5.9.0
 _ZN10Qt3DRender5Quick8QScene2D11qt_metacallEN11QMetaObject4CallEiPPv@Qt_5 5.9.0
 _ZN10Qt3DRender5Quick8QScene2D11qt_metacastEPKc@Qt_5 5.9.0
 _ZN10Qt3DRender5Quick8QScene2D12removeEntityEPN8Qt3DCore7QEntityE@Qt_5 5.9.0
 _ZN10Qt3DRender5Quick8QScene2D13outputChangedEPNS_19QRenderTargetOutputE@Qt_5 5.9.0
 _ZN10Qt3DRender5Quick8QScene2D15setMouseEnabledEb@Qt_5 5.9.0
 _ZN10Qt3DRender5Quick8QScene2D15setRenderPolicyENS1_12RenderPolicyE@Qt_5 5.9.0
 _ZN10Qt3DRender5Quick8QScene2D16staticMetaObjectE@Qt_5 5.9.0
 _ZN10Qt3DRender5Quick8QScene2D19mouseEnabledChangedEb@Qt_5 5.9.0
 _ZN10Qt3DRender5Quick8QScene2D19renderPolicyChangedENS1_12RenderPolicyE@Qt_5 5.9.0
 _ZN10Qt3DRender5Quick8QScene2D7setItemEP10QQuickItem@Qt_5 5.9.0
 _ZN10Qt3DRender5Quick8QScene2D8entitiesEv@Qt_5 5.9.0
 _ZN10Qt3DRender5Quick8QScene2D9addEntityEPN8Qt3DCore7QEntityE@Qt_5 5.9.0
 _ZN10Qt3DRender5Quick8QScene2D9setOutputEPNS_19QRenderTargetOutputE@Qt_5 5.9.0
 _ZN10Qt3DRender5Quick8QScene2DC1EPN8Qt3DCore5QNodeE@Qt_5 5.9.0
 _ZN10Qt3DRender5Quick8QScene2DC2EPN8Qt3DCore5QNodeE@Qt_5 5.9.0
 _ZN10Qt3DRender6Render5Quick15QQuick3DScene2D11entityCountEP16QQmlListPropertyIN8Qt3DCore7QEntityEE@Qt_5 5.9.0
 _ZN10Qt3DRender6Render5Quick15QQuick3DScene2D11qt_metacallEN11QMetaObject4CallEiPPv@Qt_5 5.9.0
 _ZN10Qt3DRender6Render5Quick15QQuick3DScene2D11qt_metacastEPKc@Qt_5 5.9.0
 _ZN10Qt3DRender6Render5Quick15QQuick3DScene2D12appendEntityEP16QQmlListPropertyIN8Qt3DCore7QEntityEEPS5_@Qt_5 5.9.0
 _ZN10Qt3DRender6Render5Quick15QQuick3DScene2D13clearEntitiesEP16QQmlListPropertyIN8Qt3DCore7QEntityEE@Qt_5 5.9.0
 _ZN10Qt3DRender6Render5Quick15QQuick3DScene2D16staticMetaObjectE@Qt_5 5.9.0
 _ZN10Qt3DRender6Render5Quick15QQuick3DScene2D8entitiesEv@Qt_5 5.9.0
 _ZN10Qt3DRender6Render5Quick15QQuick3DScene2D8entityAtEP16QQmlListPropertyIN8Qt3DCore7QEntityEEi@Qt_5 5.9.0
 _ZN10Qt3DRender6Render5Quick15QQuick3DScene2DC1EP7QObject@Qt_5 5.9.0
 _ZN10Qt3DRender6Render5Quick15QQuick3DScene2DC2EP7QObject@Qt_5 5.9.0
 _ZN10Qt3DRender6Render5Quick7Scene2D12stopGrabbingEv@Qt_5 5.9.0
 _ZN10Qt3DRender6Render5Quick7Scene2D13startGrabbingEv@Qt_5 5.9.0
 _ZN10Qt3DRender6Render5Quick7Scene2D15handlePickEventEiRK14QSharedPointerINS_10QPickEventEE@Qt_5 5.9.0
 _ZN10Qt3DRender6Render5Quick7Scene2D15setSharedObjectE14QSharedPointerINS_5Quick19Scene2DSharedObjectEE@Qt_5_PRIVATE_API 5.9.0
 _ZN10Qt3DRender6Render5Quick7Scene2D16initializeRenderEv@Qt_5 5.9.0
 _ZN10Qt3DRender6Render5Quick7Scene2D16sceneChangeEventERK14QSharedPointerIN8Qt3DCore12QSceneChangeEE@Qt_5 5.9.0
 _ZN10Qt3DRender6Render5Quick7Scene2D17syncRenderControlEv@Qt_5 5.9.0
 _ZN10Qt3DRender6Render5Quick7Scene2D18initializeFromPeerERK14QSharedPointerIN8Qt3DCore22QNodeCreatedChangeBaseEE@Qt_5 5.9.0
 _ZN10Qt3DRender6Render5Quick7Scene2D22initializeSharedObjectEv@Qt_5 5.9.0
 _ZN10Qt3DRender6Render5Quick7Scene2D26registerObjectPickerEventsEN8Qt3DCore7QNodeIdE@Qt_5 5.9.0
 _ZN10Qt3DRender6Render5Quick7Scene2D28unregisterObjectPickerEventsEN8Qt3DCore7QNodeIdE@Qt_5 5.9.0
 _ZN10Qt3DRender6Render5Quick7Scene2D6renderEv@Qt_5 5.9.0
 _ZN10Qt3DRender6Render5Quick7Scene2D7cleanupEv@Qt_5 5.9.0
 _ZN10Qt3DRender6Render5Quick7Scene2D9setOutputEN8Qt3DCore7QNodeIdE@Qt_5 5.9.0
 _ZN10Qt3DRender6Render5Quick7Scene2D9updateFboEP14QOpenGLTexture@Qt_5 5.9.0
 _ZN10Qt3DRender6Render5Quick7Scene2DC1Ev@Qt_5 5.9.0
 _ZN10Qt3DRender6Render5Quick7Scene2DC2Ev@Qt_5 5.9.0
 _ZN10Qt3DRender6Render5Quick7Scene2DD0Ev@Qt_5 5.9.0
 _ZN10Qt3DRender6Render5Quick7Scene2DD1Ev@Qt_5 5.9.0
 _ZN10Qt3DRender6Render5Quick7Scene2DD2Ev@Qt_5 5.9.0
 _ZNK10Qt3DRender5Quick8QScene2D10metaObjectEv@Qt_5 5.9.0
 _ZNK10Qt3DRender5Quick8QScene2D12renderPolicyEv@Qt_5 5.9.0
 _ZNK10Qt3DRender5Quick8QScene2D14isMouseEnabledEv@Qt_5 5.9.0
 _ZNK10Qt3DRender5Quick8QScene2D24createNodeCreationChangeEv@Qt_5 5.9.0
 _ZNK10Qt3DRender5Quick8QScene2D4itemEv@Qt_5 5.9.0
 _ZNK10Qt3DRender5Quick8QScene2D6outputEv@Qt_5 5.9.0
 _ZNK10Qt3DRender6Render5Quick15QQuick3DScene2D10metaObjectEv@Qt_5 5.9.0
 _ZTIN10Qt3DRender5Quick8QScene2DE@Qt_5 5.9.0
 _ZTIN10Qt3DRender6Render5Quick15QQuick3DScene2DE@Qt_5 5.9.0
 _ZTIN10Qt3DRender6Render5Quick7Scene2DE@Qt_5 5.9.0
 _ZTSN10Qt3DRender5Quick8QScene2DE@Qt_5 5.9.0
 _ZTSN10Qt3DRender6Render5Quick15QQuick3DScene2DE@Qt_5 5.9.0
 _ZTSN10Qt3DRender6Render5Quick7Scene2DE@Qt_5 5.9.0
 _ZTVN10Qt3DRender5Quick8QScene2DE@Qt_5 5.9.0
 _ZTVN10Qt3DRender6Render5Quick15QQuick3DScene2DE@Qt_5 5.9.0
 _ZTVN10Qt3DRender6Render5Quick7Scene2DE@Qt_5 5.9.0
