# SymbolsHelper-Confirmed: 5.9.0 amd64
libQt53DAnimation.so.5 libqt53danimation5 #MINVER#
 Qt_5.0@Qt_5.0 5.9.0
 Qt_5.1@Qt_5.1 5.9.0
 Qt_5.2@Qt_5.2 5.9.0
 Qt_5.3@Qt_5.3 5.9.0
 Qt_5.4@Qt_5.4 5.9.0
 Qt_5.5@Qt_5.5 5.9.0
 Qt_5.6@Qt_5.6 5.9.0
 Qt_5.7@Qt_5.7 5.9.0
 Qt_5.8@Qt_5.8 5.9.0
 Qt_5.9@Qt_5.9 5.9.0
 Qt_5@Qt_5 5.9.0
 Qt_5_PRIVATE_API@Qt_5_PRIVATE_API 5.9.0
 _ZN13Qt3DAnimation12QMorphTarget11qt_metacallEN11QMetaObject4CallEiPPv@Qt_5 5.9.0
 _ZN13Qt3DAnimation12QMorphTarget11qt_metacastEPKc@Qt_5 5.9.0
 _ZN13Qt3DAnimation12QMorphTarget12addAttributeEPN10Qt3DRender10QAttributeE@Qt_5 5.9.0
 _ZN13Qt3DAnimation12QMorphTarget12fromGeometryEPN10Qt3DRender9QGeometryERK11QStringList@Qt_5 5.9.0
 _ZN13Qt3DAnimation12QMorphTarget13setAttributesERK7QVectorIPN10Qt3DRender10QAttributeEE@Qt_5 5.9.0
 _ZN13Qt3DAnimation12QMorphTarget15removeAttributeEPN10Qt3DRender10QAttributeE@Qt_5 5.9.0
 _ZN13Qt3DAnimation12QMorphTarget16staticMetaObjectE@Qt_5 5.9.0
 _ZN13Qt3DAnimation12QMorphTarget21attributeNamesChangedERK11QStringList@Qt_5 5.9.0
 _ZN13Qt3DAnimation12QMorphTargetC1EP7QObject@Qt_5 5.9.0
 _ZN13Qt3DAnimation12QMorphTargetC2EP7QObject@Qt_5 5.9.0
 _ZN13Qt3DAnimation13QClipAnimator11clipChangedEPNS_22QAbstractAnimationClipE@Qt_5 5.9.0
 _ZN13Qt3DAnimation13QClipAnimator11qt_metacallEN11QMetaObject4CallEiPPv@Qt_5 5.9.0
 _ZN13Qt3DAnimation13QClipAnimator11qt_metacastEPKc@Qt_5 5.9.0
 _ZN13Qt3DAnimation13QClipAnimator16staticMetaObjectE@Qt_5 5.9.0
 _ZN13Qt3DAnimation13QClipAnimator7setClipEPNS_22QAbstractAnimationClipE@Qt_5 5.9.0
 _ZN13Qt3DAnimation13QClipAnimatorC1EPN8Qt3DCore5QNodeE@Qt_5 5.9.0
 _ZN13Qt3DAnimation13QClipAnimatorC1ERNS_20QClipAnimatorPrivateEPN8Qt3DCore5QNodeE@Qt_5 5.9.0
 _ZN13Qt3DAnimation13QClipAnimatorC2EPN8Qt3DCore5QNodeE@Qt_5 5.9.0
 _ZN13Qt3DAnimation13QClipAnimatorC2ERNS_20QClipAnimatorPrivateEPN8Qt3DCore5QNodeE@Qt_5 5.9.0
 _ZN13Qt3DAnimation13QClipAnimatorD0Ev@Qt_5 5.9.0
 _ZN13Qt3DAnimation13QClipAnimatorD1Ev@Qt_5 5.9.0
 _ZN13Qt3DAnimation13QClipAnimatorD2Ev@Qt_5 5.9.0
 _ZN13Qt3DAnimation14QAnimationClip11qt_metacallEN11QMetaObject4CallEiPPv@Qt_5 5.9.0
 _ZN13Qt3DAnimation14QAnimationClip11qt_metacastEPKc@Qt_5 5.9.0
 _ZN13Qt3DAnimation14QAnimationClip11setClipDataERKNS_18QAnimationClipDataE@Qt_5 5.9.0
 _ZN13Qt3DAnimation14QAnimationClip15clipDataChangedENS_18QAnimationClipDataE@Qt_5 5.9.0
 _ZN13Qt3DAnimation14QAnimationClip16staticMetaObjectE@Qt_5 5.9.0
 _ZN13Qt3DAnimation14QAnimationClipC1EPN8Qt3DCore5QNodeE@Qt_5 5.9.0
 _ZN13Qt3DAnimation14QAnimationClipC1ERNS_21QAnimationClipPrivateEPN8Qt3DCore5QNodeE@Qt_5 5.9.0
 _ZN13Qt3DAnimation14QAnimationClipC2EPN8Qt3DCore5QNodeE@Qt_5 5.9.0
 _ZN13Qt3DAnimation14QAnimationClipC2ERNS_21QAnimationClipPrivateEPN8Qt3DCore5QNodeE@Qt_5 5.9.0
 _ZN13Qt3DAnimation14QAnimationClipD0Ev@Qt_5 5.9.0
 _ZN13Qt3DAnimation14QAnimationClipD1Ev@Qt_5 5.9.0
 _ZN13Qt3DAnimation14QAnimationClipD2Ev@Qt_5 5.9.0
 _ZN13Qt3DAnimation14QChannelMapper10addMappingEPNS_15QChannelMappingE@Qt_5 5.9.0
 _ZN13Qt3DAnimation14QChannelMapper11qt_metacallEN11QMetaObject4CallEiPPv@Qt_5 5.9.0
 _ZN13Qt3DAnimation14QChannelMapper11qt_metacastEPKc@Qt_5 5.9.0
 _ZN13Qt3DAnimation14QChannelMapper13removeMappingEPNS_15QChannelMappingE@Qt_5 5.9.0
 _ZN13Qt3DAnimation14QChannelMapper16staticMetaObjectE@Qt_5 5.9.0
 _ZN13Qt3DAnimation14QChannelMapperC1EPN8Qt3DCore5QNodeE@Qt_5 5.9.0
 _ZN13Qt3DAnimation14QChannelMapperC1ERNS_21QChannelMapperPrivateEPN8Qt3DCore5QNodeE@Qt_5 5.9.0
 _ZN13Qt3DAnimation14QChannelMapperC2EPN8Qt3DCore5QNodeE@Qt_5 5.9.0
 _ZN13Qt3DAnimation14QChannelMapperC2ERNS_21QChannelMapperPrivateEPN8Qt3DCore5QNodeE@Qt_5 5.9.0
 _ZN13Qt3DAnimation14QChannelMapperD0Ev@Qt_5 5.9.0
 _ZN13Qt3DAnimation14QChannelMapperD1Ev@Qt_5 5.9.0
 _ZN13Qt3DAnimation14QChannelMapperD2Ev@Qt_5 5.9.0
 _ZN13Qt3DAnimation14QLerpClipBlend10setEndClipEPNS_22QAbstractClipBlendNodeE@Qt_5 5.9.0
 _ZN13Qt3DAnimation14QLerpClipBlend11qt_metacallEN11QMetaObject4CallEiPPv@Qt_5 5.9.0
 _ZN13Qt3DAnimation14QLerpClipBlend11qt_metacastEPKc@Qt_5 5.9.0
 _ZN13Qt3DAnimation14QLerpClipBlend12setStartClipEPNS_22QAbstractClipBlendNodeE@Qt_5 5.9.0
 _ZN13Qt3DAnimation14QLerpClipBlend14endClipChangedEPNS_22QAbstractClipBlendNodeE@Qt_5 5.9.0
 _ZN13Qt3DAnimation14QLerpClipBlend14setBlendFactorEf@Qt_5 5.9.0
 _ZN13Qt3DAnimation14QLerpClipBlend16startClipChangedEPNS_22QAbstractClipBlendNodeE@Qt_5 5.9.0
 _ZN13Qt3DAnimation14QLerpClipBlend16staticMetaObjectE@Qt_5 5.9.0
 _ZN13Qt3DAnimation14QLerpClipBlend18blendFactorChangedEf@Qt_5 5.9.0
 _ZN13Qt3DAnimation14QLerpClipBlendC1EPN8Qt3DCore5QNodeE@Qt_5 5.9.0
 _ZN13Qt3DAnimation14QLerpClipBlendC1ERNS_21QLerpClipBlendPrivateEPN8Qt3DCore5QNodeE@Qt_5 5.9.0
 _ZN13Qt3DAnimation14QLerpClipBlendC2EPN8Qt3DCore5QNodeE@Qt_5 5.9.0
 _ZN13Qt3DAnimation14QLerpClipBlendC2ERNS_21QLerpClipBlendPrivateEPN8Qt3DCore5QNodeE@Qt_5 5.9.0
 _ZN13Qt3DAnimation14QLerpClipBlendD0Ev@Qt_5 5.9.0
 _ZN13Qt3DAnimation14QLerpClipBlendD1Ev@Qt_5 5.9.0
 _ZN13Qt3DAnimation14QLerpClipBlendD2Ev@Qt_5 5.9.0
 _ZN13Qt3DAnimation15QAnimationGroup11nameChangedERK7QString@Qt_5 5.9.0
 _ZN13Qt3DAnimation15QAnimationGroup11qt_metacallEN11QMetaObject4CallEiPPv@Qt_5 5.9.0
 _ZN13Qt3DAnimation15QAnimationGroup11qt_metacastEPKc@Qt_5 5.9.0
 _ZN13Qt3DAnimation15QAnimationGroup11setPositionEf@Qt_5 5.9.0
 _ZN13Qt3DAnimation15QAnimationGroup12addAnimationEPNS_18QAbstractAnimationE@Qt_5 5.9.0
 _ZN13Qt3DAnimation15QAnimationGroup13animationListEv@Qt_5 5.9.0
 _ZN13Qt3DAnimation15QAnimationGroup13setAnimationsERK7QVectorIPNS_18QAbstractAnimationEE@Qt_5 5.9.0
 _ZN13Qt3DAnimation15QAnimationGroup15durationChangedEf@Qt_5 5.9.0
 _ZN13Qt3DAnimation15QAnimationGroup15positionChangedEf@Qt_5 5.9.0
 _ZN13Qt3DAnimation15QAnimationGroup15removeAnimationEPNS_18QAbstractAnimationE@Qt_5 5.9.0
 _ZN13Qt3DAnimation15QAnimationGroup16staticMetaObjectE@Qt_5 5.9.0
 _ZN13Qt3DAnimation15QAnimationGroup7setNameERK7QString@Qt_5 5.9.0
 _ZN13Qt3DAnimation15QAnimationGroupC1EP7QObject@Qt_5 5.9.0
 _ZN13Qt3DAnimation15QAnimationGroupC2EP7QObject@Qt_5 5.9.0
 _ZN13Qt3DAnimation15QChannelMapping11qt_metacallEN11QMetaObject4CallEiPPv@Qt_5 5.9.0
 _ZN13Qt3DAnimation15QChannelMapping11qt_metacastEPKc@Qt_5 5.9.0
 _ZN13Qt3DAnimation15QChannelMapping11setPropertyERK7QString@Qt_5 5.9.0
 _ZN13Qt3DAnimation15QChannelMapping13targetChangedEPN8Qt3DCore5QNodeE@Qt_5 5.9.0
 _ZN13Qt3DAnimation15QChannelMapping14setChannelNameERK7QString@Qt_5 5.9.0
 _ZN13Qt3DAnimation15QChannelMapping15propertyChangedE7QString@Qt_5 5.9.0
 _ZN13Qt3DAnimation15QChannelMapping16staticMetaObjectE@Qt_5 5.9.0
 _ZN13Qt3DAnimation15QChannelMapping18channelNameChangedE7QString@Qt_5 5.9.0
 _ZN13Qt3DAnimation15QChannelMapping9setTargetEPN8Qt3DCore5QNodeE@Qt_5 5.9.0
 _ZN13Qt3DAnimation15QChannelMappingC1EPN8Qt3DCore5QNodeE@Qt_5 5.9.0
 _ZN13Qt3DAnimation15QChannelMappingC1ERNS_22QChannelMappingPrivateEPN8Qt3DCore5QNodeE@Qt_5 5.9.0
 _ZN13Qt3DAnimation15QChannelMappingC2EPN8Qt3DCore5QNodeE@Qt_5 5.9.0
 _ZN13Qt3DAnimation15QChannelMappingC2ERNS_22QChannelMappingPrivateEPN8Qt3DCore5QNodeE@Qt_5 5.9.0
 _ZN13Qt3DAnimation15QChannelMappingD0Ev@Qt_5 5.9.0
 _ZN13Qt3DAnimation15QChannelMappingD1Ev@Qt_5 5.9.0
 _ZN13Qt3DAnimation15QChannelMappingD2Ev@Qt_5 5.9.0
 _ZN13Qt3DAnimation15QClipBlendValue11clipChangedEPNS_22QAbstractAnimationClipE@Qt_5 5.9.0
 _ZN13Qt3DAnimation15QClipBlendValue11qt_metacallEN11QMetaObject4CallEiPPv@Qt_5 5.9.0
 _ZN13Qt3DAnimation15QClipBlendValue11qt_metacastEPKc@Qt_5 5.9.0
 _ZN13Qt3DAnimation15QClipBlendValue16staticMetaObjectE@Qt_5 5.9.0
 _ZN13Qt3DAnimation15QClipBlendValue7setClipEPNS_22QAbstractAnimationClipE@Qt_5 5.9.0
 _ZN13Qt3DAnimation15QClipBlendValueC1EPN8Qt3DCore5QNodeE@Qt_5 5.9.0
 _ZN13Qt3DAnimation15QClipBlendValueC1EPNS_22QAbstractAnimationClipEPN8Qt3DCore5QNodeE@Qt_5 5.9.0
 _ZN13Qt3DAnimation15QClipBlendValueC1ERNS_22QClipBlendValuePrivateEPN8Qt3DCore5QNodeE@Qt_5 5.9.0
 _ZN13Qt3DAnimation15QClipBlendValueC2EPN8Qt3DCore5QNodeE@Qt_5 5.9.0
 _ZN13Qt3DAnimation15QClipBlendValueC2EPNS_22QAbstractAnimationClipEPN8Qt3DCore5QNodeE@Qt_5 5.9.0
 _ZN13Qt3DAnimation15QClipBlendValueC2ERNS_22QClipBlendValuePrivateEPN8Qt3DCore5QNodeE@Qt_5 5.9.0
 _ZN13Qt3DAnimation15QClipBlendValueD0Ev@Qt_5 5.9.0
 _ZN13Qt3DAnimation15QClipBlendValueD1Ev@Qt_5 5.9.0
 _ZN13Qt3DAnimation15QClipBlendValueD2Ev@Qt_5 5.9.0
 _ZN13Qt3DAnimation16QAnimationAspect11qt_metacallEN11QMetaObject4CallEiPPv@Qt_5 5.9.0
 _ZN13Qt3DAnimation16QAnimationAspect11qt_metacastEPKc@Qt_5 5.9.0
 _ZN13Qt3DAnimation16QAnimationAspect13jobsToExecuteEx@Qt_5 5.9.0
 _ZN13Qt3DAnimation16QAnimationAspect16staticMetaObjectE@Qt_5 5.9.0
 _ZN13Qt3DAnimation16QAnimationAspectC1EP7QObject@Qt_5 5.9.0
 _ZN13Qt3DAnimation16QAnimationAspectC1ERNS_23QAnimationAspectPrivateEP7QObject@Qt_5 5.9.0
 _ZN13Qt3DAnimation16QAnimationAspectC2EP7QObject@Qt_5 5.9.0
 _ZN13Qt3DAnimation16QAnimationAspectC2ERNS_23QAnimationAspectPrivateEP7QObject@Qt_5 5.9.0
 _ZN13Qt3DAnimation16QAnimationAspectD0Ev@Qt_5 5.9.0
 _ZN13Qt3DAnimation16QAnimationAspectD1Ev@Qt_5 5.9.0
 _ZN13Qt3DAnimation16QAnimationAspectD2Ev@Qt_5 5.9.0
 _ZN13Qt3DAnimation17QChannelComponent14appendKeyFrameERKNS_9QKeyFrameE@Qt_5 5.9.0
 _ZN13Qt3DAnimation17QChannelComponent14clearKeyFramesEv@Qt_5 5.9.0
 _ZN13Qt3DAnimation17QChannelComponent14insertKeyFrameEiRKNS_9QKeyFrameE@Qt_5 5.9.0
 _ZN13Qt3DAnimation17QChannelComponent14removeKeyFrameEi@Qt_5 5.9.0
 _ZN13Qt3DAnimation17QChannelComponent7setNameERK7QString@Qt_5 5.9.0
 _ZN13Qt3DAnimation17QChannelComponentC1ERK7QString@Qt_5 5.9.0
 _ZN13Qt3DAnimation17QChannelComponentC1ERKS0_@Qt_5 5.9.0
 _ZN13Qt3DAnimation17QChannelComponentC1Ev@Qt_5 5.9.0
 _ZN13Qt3DAnimation17QChannelComponentC2ERK7QString@Qt_5 5.9.0
 _ZN13Qt3DAnimation17QChannelComponentC2ERKS0_@Qt_5 5.9.0
 _ZN13Qt3DAnimation17QChannelComponentC2Ev@Qt_5 5.9.0
 _ZN13Qt3DAnimation17QChannelComponentD1Ev@Qt_5 5.9.0
 _ZN13Qt3DAnimation17QChannelComponentD2Ev@Qt_5 5.9.0
 _ZN13Qt3DAnimation17QChannelComponentaSERKS0_@Qt_5 5.9.0
 _ZN13Qt3DAnimation18QAbstractAnimation11qt_metacallEN11QMetaObject4CallEiPPv@Qt_5 5.9.0
 _ZN13Qt3DAnimation18QAbstractAnimation11qt_metacastEPKc@Qt_5 5.9.0
 _ZN13Qt3DAnimation18QAbstractAnimation11setDurationEf@Qt_5 5.9.0
 _ZN13Qt3DAnimation18QAbstractAnimation11setPositionEf@Qt_5 5.9.0
 _ZN13Qt3DAnimation18QAbstractAnimation15durationChangedEf@Qt_5 5.9.0
 _ZN13Qt3DAnimation18QAbstractAnimation15positionChangedEf@Qt_5 5.9.0
 _ZN13Qt3DAnimation18QAbstractAnimation16setAnimationNameERK7QString@Qt_5 5.9.0
 _ZN13Qt3DAnimation18QAbstractAnimation16staticMetaObjectE@Qt_5 5.9.0
 _ZN13Qt3DAnimation18QAbstractAnimation20animationNameChangedERK7QString@Qt_5 5.9.0
 _ZN13Qt3DAnimation18QAbstractAnimationC1ERNS_25QAbstractAnimationPrivateEP7QObject@Qt_5_PRIVATE_API 5.9.0
 _ZN13Qt3DAnimation18QAbstractAnimationC2ERNS_25QAbstractAnimationPrivateEP7QObject@Qt_5_PRIVATE_API 5.9.0
 _ZN13Qt3DAnimation18QAdditiveClipBlend11qt_metacallEN11QMetaObject4CallEiPPv@Qt_5 5.9.0
 _ZN13Qt3DAnimation18QAdditiveClipBlend11qt_metacastEPKc@Qt_5 5.9.0
 _ZN13Qt3DAnimation18QAdditiveClipBlend11setBaseClipEPNS_22QAbstractClipBlendNodeE@Qt_5 5.9.0
 _ZN13Qt3DAnimation18QAdditiveClipBlend15baseClipChangedEPNS_22QAbstractClipBlendNodeE@Qt_5 5.9.0
 _ZN13Qt3DAnimation18QAdditiveClipBlend15setAdditiveClipEPNS_22QAbstractClipBlendNodeE@Qt_5 5.9.0
 _ZN13Qt3DAnimation18QAdditiveClipBlend16staticMetaObjectE@Qt_5 5.9.0
 _ZN13Qt3DAnimation18QAdditiveClipBlend17setAdditiveFactorEf@Qt_5 5.9.0
 _ZN13Qt3DAnimation18QAdditiveClipBlend19additiveClipChangedEPNS_22QAbstractClipBlendNodeE@Qt_5 5.9.0
 _ZN13Qt3DAnimation18QAdditiveClipBlend21additiveFactorChangedEf@Qt_5 5.9.0
 _ZN13Qt3DAnimation18QAdditiveClipBlendC1EPN8Qt3DCore5QNodeE@Qt_5 5.9.0
 _ZN13Qt3DAnimation18QAdditiveClipBlendC1ERNS_25QAdditiveClipBlendPrivateEPN8Qt3DCore5QNodeE@Qt_5 5.9.0
 _ZN13Qt3DAnimation18QAdditiveClipBlendC2EPN8Qt3DCore5QNodeE@Qt_5 5.9.0
 _ZN13Qt3DAnimation18QAdditiveClipBlendC2ERNS_25QAdditiveClipBlendPrivateEPN8Qt3DCore5QNodeE@Qt_5 5.9.0
 _ZN13Qt3DAnimation18QAdditiveClipBlendD0Ev@Qt_5 5.9.0
 _ZN13Qt3DAnimation18QAdditiveClipBlendD1Ev@Qt_5 5.9.0
 _ZN13Qt3DAnimation18QAdditiveClipBlendD2Ev@Qt_5 5.9.0
 _ZN13Qt3DAnimation18QAnimationClipData13appendChannelERKNS_8QChannelE@Qt_5 5.9.0
 _ZN13Qt3DAnimation18QAnimationClipData13clearChannelsEv@Qt_5 5.9.0
 _ZN13Qt3DAnimation18QAnimationClipData13insertChannelEiRKNS_8QChannelE@Qt_5 5.9.0
 _ZN13Qt3DAnimation18QAnimationClipData13removeChannelEi@Qt_5 5.9.0
 _ZN13Qt3DAnimation18QAnimationClipData7setNameERK7QString@Qt_5 5.9.0
 _ZN13Qt3DAnimation18QAnimationClipDataC1ERKS0_@Qt_5 5.9.0
 _ZN13Qt3DAnimation18QAnimationClipDataC1Ev@Qt_5 5.9.0
 _ZN13Qt3DAnimation18QAnimationClipDataC2ERKS0_@Qt_5 5.9.0
 _ZN13Qt3DAnimation18QAnimationClipDataC2Ev@Qt_5 5.9.0
 _ZN13Qt3DAnimation18QAnimationClipDataD1Ev@Qt_5 5.9.0
 _ZN13Qt3DAnimation18QAnimationClipDataD2Ev@Qt_5 5.9.0
 _ZN13Qt3DAnimation18QAnimationClipDataaSERKS0_@Qt_5 5.9.0
 _ZN13Qt3DAnimation18QKeyframeAnimation10setEndModeENS0_10RepeatModeE@Qt_5 5.9.0
 _ZN13Qt3DAnimation18QKeyframeAnimation11addKeyframeEPN8Qt3DCore10QTransformE@Qt_5 5.9.0
 _ZN13Qt3DAnimation18QKeyframeAnimation11qt_metacallEN11QMetaObject4CallEiPPv@Qt_5 5.9.0
 _ZN13Qt3DAnimation18QKeyframeAnimation11qt_metacastEPKc@Qt_5 5.9.0
 _ZN13Qt3DAnimation18QKeyframeAnimation12setKeyframesERK7QVectorIPN8Qt3DCore10QTransformEE@Qt_5 5.9.0
 _ZN13Qt3DAnimation18QKeyframeAnimation12setStartModeENS0_10RepeatModeE@Qt_5 5.9.0
 _ZN13Qt3DAnimation18QKeyframeAnimation13easingChangedERK12QEasingCurve@Qt_5 5.9.0
 _ZN13Qt3DAnimation18QKeyframeAnimation13setTargetNameERK7QString@Qt_5 5.9.0
 _ZN13Qt3DAnimation18QKeyframeAnimation13targetChangedEPN8Qt3DCore10QTransformE@Qt_5 5.9.0
 _ZN13Qt3DAnimation18QKeyframeAnimation14endModeChangedENS0_10RepeatModeE@Qt_5 5.9.0
 _ZN13Qt3DAnimation18QKeyframeAnimation14removeKeyframeEPN8Qt3DCore10QTransformE@Qt_5 5.9.0
 _ZN13Qt3DAnimation18QKeyframeAnimation15updateAnimationEf@Qt_5 5.9.0
 _ZN13Qt3DAnimation18QKeyframeAnimation16startModeChangedENS0_10RepeatModeE@Qt_5 5.9.0
 _ZN13Qt3DAnimation18QKeyframeAnimation16staticMetaObjectE@Qt_5 5.9.0
 _ZN13Qt3DAnimation18QKeyframeAnimation17setFramePositionsERK7QVectorIfE@Qt_5 5.9.0
 _ZN13Qt3DAnimation18QKeyframeAnimation17targetNameChangedERK7QString@Qt_5 5.9.0
 _ZN13Qt3DAnimation18QKeyframeAnimation21framePositionsChangedERK7QVectorIfE@Qt_5 5.9.0
 _ZN13Qt3DAnimation18QKeyframeAnimation9setEasingERK12QEasingCurve@Qt_5 5.9.0
 _ZN13Qt3DAnimation18QKeyframeAnimation9setTargetEPN8Qt3DCore10QTransformE@Qt_5 5.9.0
 _ZN13Qt3DAnimation18QKeyframeAnimationC1EP7QObject@Qt_5 5.9.0
 _ZN13Qt3DAnimation18QKeyframeAnimationC2EP7QObject@Qt_5 5.9.0
 _ZN13Qt3DAnimation18QMorphingAnimation10getWeightsEi@Qt_5 5.9.0
 _ZN13Qt3DAnimation18QMorphingAnimation10setWeightsEiRK7QVectorIfE@Qt_5 5.9.0
 _ZN13Qt3DAnimation18QMorphingAnimation11qt_metacallEN11QMetaObject4CallEiPPv@Qt_5 5.9.0
 _ZN13Qt3DAnimation18QMorphingAnimation11qt_metacastEPKc@Qt_5 5.9.0
 _ZN13Qt3DAnimation18QMorphingAnimation13easingChangedERK12QEasingCurve@Qt_5 5.9.0
 _ZN13Qt3DAnimation18QMorphingAnimation13methodChangedENS0_6MethodE@Qt_5 5.9.0
 _ZN13Qt3DAnimation18QMorphingAnimation13setTargetNameE7QString@Qt_5 5.9.0
 _ZN13Qt3DAnimation18QMorphingAnimation13targetChangedEPN10Qt3DRender17QGeometryRendererE@Qt_5 5.9.0
 _ZN13Qt3DAnimation18QMorphingAnimation14addMorphTargetEPNS_12QMorphTargetE@Qt_5 5.9.0
 _ZN13Qt3DAnimation18QMorphingAnimation15morphTargetListEv@Qt_5 5.9.0
 _ZN13Qt3DAnimation18QMorphingAnimation15setMorphTargetsERK7QVectorIPNS_12QMorphTargetEE@Qt_5 5.9.0
 _ZN13Qt3DAnimation18QMorphingAnimation15updateAnimationEf@Qt_5 5.9.0
 _ZN13Qt3DAnimation18QMorphingAnimation16staticMetaObjectE@Qt_5 5.9.0
 _ZN13Qt3DAnimation18QMorphingAnimation17removeMorphTargetEPNS_12QMorphTargetE@Qt_5 5.9.0
 _ZN13Qt3DAnimation18QMorphingAnimation17targetNameChangedERK7QString@Qt_5 5.9.0
 _ZN13Qt3DAnimation18QMorphingAnimation18setTargetPositionsERK7QVectorIfE@Qt_5 5.9.0
 _ZN13Qt3DAnimation18QMorphingAnimation19interpolatorChangedEf@Qt_5 5.9.0
 _ZN13Qt3DAnimation18QMorphingAnimation22targetPositionsChangedERK7QVectorIfE@Qt_5 5.9.0
 _ZN13Qt3DAnimation18QMorphingAnimation9setEasingERK12QEasingCurve@Qt_5 5.9.0
 _ZN13Qt3DAnimation18QMorphingAnimation9setMethodENS0_6MethodE@Qt_5 5.9.0
 _ZN13Qt3DAnimation18QMorphingAnimation9setTargetEPN10Qt3DRender17QGeometryRendererE@Qt_5 5.9.0
 _ZN13Qt3DAnimation18QMorphingAnimationC1EP7QObject@Qt_5 5.9.0
 _ZN13Qt3DAnimation18QMorphingAnimationC2EP7QObject@Qt_5 5.9.0
 _ZN13Qt3DAnimation20QAnimationClipLoader11qt_metacallEN11QMetaObject4CallEiPPv@Qt_5 5.9.0
 _ZN13Qt3DAnimation20QAnimationClipLoader11qt_metacastEPKc@Qt_5 5.9.0
 _ZN13Qt3DAnimation20QAnimationClipLoader13sourceChangedERK4QUrl@Qt_5 5.9.0
 _ZN13Qt3DAnimation20QAnimationClipLoader13statusChangedENS0_6StatusE@Qt_5 5.9.0
 _ZN13Qt3DAnimation20QAnimationClipLoader16sceneChangeEventERK14QSharedPointerIN8Qt3DCore12QSceneChangeEE@Qt_5 5.9.0
 _ZN13Qt3DAnimation20QAnimationClipLoader16staticMetaObjectE@Qt_5 5.9.0
 _ZN13Qt3DAnimation20QAnimationClipLoader9setSourceERK4QUrl@Qt_5 5.9.0
 _ZN13Qt3DAnimation20QAnimationClipLoaderC1EPN8Qt3DCore5QNodeE@Qt_5 5.9.0
 _ZN13Qt3DAnimation20QAnimationClipLoaderC1ERK4QUrlPN8Qt3DCore5QNodeE@Qt_5 5.9.0
 _ZN13Qt3DAnimation20QAnimationClipLoaderC1ERNS_27QAnimationClipLoaderPrivateEPN8Qt3DCore5QNodeE@Qt_5 5.9.0
 _ZN13Qt3DAnimation20QAnimationClipLoaderC2EPN8Qt3DCore5QNodeE@Qt_5 5.9.0
 _ZN13Qt3DAnimation20QAnimationClipLoaderC2ERK4QUrlPN8Qt3DCore5QNodeE@Qt_5 5.9.0
 _ZN13Qt3DAnimation20QAnimationClipLoaderC2ERNS_27QAnimationClipLoaderPrivateEPN8Qt3DCore5QNodeE@Qt_5 5.9.0
 _ZN13Qt3DAnimation20QAnimationClipLoaderD0Ev@Qt_5 5.9.0
 _ZN13Qt3DAnimation20QAnimationClipLoaderD1Ev@Qt_5 5.9.0
 _ZN13Qt3DAnimation20QAnimationClipLoaderD2Ev@Qt_5 5.9.0
 _ZN13Qt3DAnimation20QAnimationController11qt_metacallEN11QMetaObject4CallEiPPv@Qt_5 5.9.0
 _ZN13Qt3DAnimation20QAnimationController11qt_metacastEPKc@Qt_5 5.9.0
 _ZN13Qt3DAnimation20QAnimationController11setPositionEf@Qt_5 5.9.0
 _ZN13Qt3DAnimation20QAnimationController12setRecursiveEb@Qt_5 5.9.0
 _ZN13Qt3DAnimation20QAnimationController13entityChangedEPN8Qt3DCore7QEntityE@Qt_5 5.9.0
 _ZN13Qt3DAnimation20QAnimationController15positionChangedEf@Qt_5 5.9.0
 _ZN13Qt3DAnimation20QAnimationController16recursiveChangedEb@Qt_5 5.9.0
 _ZN13Qt3DAnimation20QAnimationController16setPositionScaleEf@Qt_5 5.9.0
 _ZN13Qt3DAnimation20QAnimationController16staticMetaObjectE@Qt_5 5.9.0
 _ZN13Qt3DAnimation20QAnimationController17addAnimationGroupEPNS_15QAnimationGroupE@Qt_5 5.9.0
 _ZN13Qt3DAnimation20QAnimationController17setPositionOffsetEf@Qt_5 5.9.0
 _ZN13Qt3DAnimation20QAnimationController18animationGroupListEv@Qt_5 5.9.0
 _ZN13Qt3DAnimation20QAnimationController18setAnimationGroupsERK7QVectorIPNS_15QAnimationGroupEE@Qt_5 5.9.0
 _ZN13Qt3DAnimation20QAnimationController20positionScaleChangedEf@Qt_5 5.9.0
 _ZN13Qt3DAnimation20QAnimationController20removeAnimationGroupEPNS_15QAnimationGroupE@Qt_5 5.9.0
 _ZN13Qt3DAnimation20QAnimationController21positionOffsetChangedEf@Qt_5 5.9.0
 _ZN13Qt3DAnimation20QAnimationController23setActiveAnimationGroupEi@Qt_5 5.9.0
 _ZN13Qt3DAnimation20QAnimationController27activeAnimationGroupChangedEi@Qt_5 5.9.0
 _ZN13Qt3DAnimation20QAnimationController9setEntityEPN8Qt3DCore7QEntityE@Qt_5 5.9.0
 _ZN13Qt3DAnimation20QAnimationControllerC1EP7QObject@Qt_5 5.9.0
 _ZN13Qt3DAnimation20QAnimationControllerC2EP7QObject@Qt_5 5.9.0
 _ZN13Qt3DAnimation20QBlendedClipAnimator11qt_metacallEN11QMetaObject4CallEiPPv@Qt_5 5.9.0
 _ZN13Qt3DAnimation20QBlendedClipAnimator11qt_metacastEPKc@Qt_5 5.9.0
 _ZN13Qt3DAnimation20QBlendedClipAnimator12setBlendTreeEPNS_22QAbstractClipBlendNodeE@Qt_5 5.9.0
 _ZN13Qt3DAnimation20QBlendedClipAnimator16blendTreeChangedEPNS_22QAbstractClipBlendNodeE@Qt_5 5.9.0
 _ZN13Qt3DAnimation20QBlendedClipAnimator16staticMetaObjectE@Qt_5 5.9.0
 _ZN13Qt3DAnimation20QBlendedClipAnimatorC1EPN8Qt3DCore5QNodeE@Qt_5 5.9.0
 _ZN13Qt3DAnimation20QBlendedClipAnimatorC1ERNS_27QBlendedClipAnimatorPrivateEPN8Qt3DCore5QNodeE@Qt_5 5.9.0
 _ZN13Qt3DAnimation20QBlendedClipAnimatorC2EPN8Qt3DCore5QNodeE@Qt_5 5.9.0
 _ZN13Qt3DAnimation20QBlendedClipAnimatorC2ERNS_27QBlendedClipAnimatorPrivateEPN8Qt3DCore5QNodeE@Qt_5 5.9.0
 _ZN13Qt3DAnimation20QBlendedClipAnimatorD0Ev@Qt_5 5.9.0
 _ZN13Qt3DAnimation20QBlendedClipAnimatorD1Ev@Qt_5 5.9.0
 _ZN13Qt3DAnimation20QBlendedClipAnimatorD2Ev@Qt_5 5.9.0
 _ZN13Qt3DAnimation21QAbstractClipAnimator10setRunningEb@Qt_5 5.9.0
 _ZN13Qt3DAnimation21QAbstractClipAnimator11qt_metacallEN11QMetaObject4CallEiPPv@Qt_5 5.9.0
 _ZN13Qt3DAnimation21QAbstractClipAnimator11qt_metacastEPKc@Qt_5 5.9.0
 _ZN13Qt3DAnimation21QAbstractClipAnimator12setLoopCountEi@Qt_5 5.9.0
 _ZN13Qt3DAnimation21QAbstractClipAnimator14runningChangedEb@Qt_5 5.9.0
 _ZN13Qt3DAnimation21QAbstractClipAnimator16loopCountChangedEi@Qt_5 5.9.0
 _ZN13Qt3DAnimation21QAbstractClipAnimator16setChannelMapperEPNS_14QChannelMapperE@Qt_5 5.9.0
 _ZN13Qt3DAnimation21QAbstractClipAnimator16staticMetaObjectE@Qt_5 5.9.0
 _ZN13Qt3DAnimation21QAbstractClipAnimator20channelMapperChangedEPNS_14QChannelMapperE@Qt_5 5.9.0
 _ZN13Qt3DAnimation21QAbstractClipAnimator4stopEv@Qt_5 5.9.0
 _ZN13Qt3DAnimation21QAbstractClipAnimator5startEv@Qt_5 5.9.0
 _ZN13Qt3DAnimation21QAbstractClipAnimatorC1EPN8Qt3DCore5QNodeE@Qt_5 5.9.0
 _ZN13Qt3DAnimation21QAbstractClipAnimatorC1ERNS_28QAbstractClipAnimatorPrivateEPN8Qt3DCore5QNodeE@Qt_5 5.9.0
 _ZN13Qt3DAnimation21QAbstractClipAnimatorC2EPN8Qt3DCore5QNodeE@Qt_5 5.9.0
 _ZN13Qt3DAnimation21QAbstractClipAnimatorC2ERNS_28QAbstractClipAnimatorPrivateEPN8Qt3DCore5QNodeE@Qt_5 5.9.0
 _ZN13Qt3DAnimation21QAbstractClipAnimatorD0Ev@Qt_5 5.9.0
 _ZN13Qt3DAnimation21QAbstractClipAnimatorD1Ev@Qt_5 5.9.0
 _ZN13Qt3DAnimation21QAbstractClipAnimatorD2Ev@Qt_5 5.9.0
 _ZN13Qt3DAnimation21QVertexBlendAnimation11qt_metacallEN11QMetaObject4CallEiPPv@Qt_5 5.9.0
 _ZN13Qt3DAnimation21QVertexBlendAnimation11qt_metacastEPKc@Qt_5 5.9.0
 _ZN13Qt3DAnimation21QVertexBlendAnimation13setTargetNameE7QString@Qt_5 5.9.0
 _ZN13Qt3DAnimation21QVertexBlendAnimation13targetChangedEPN10Qt3DRender17QGeometryRendererE@Qt_5 5.9.0
 _ZN13Qt3DAnimation21QVertexBlendAnimation14addMorphTargetEPNS_12QMorphTargetE@Qt_5 5.9.0
 _ZN13Qt3DAnimation21QVertexBlendAnimation15morphTargetListEv@Qt_5 5.9.0
 _ZN13Qt3DAnimation21QVertexBlendAnimation15setMorphTargetsERK7QVectorIPNS_12QMorphTargetEE@Qt_5 5.9.0
 _ZN13Qt3DAnimation21QVertexBlendAnimation15updateAnimationEf@Qt_5 5.9.0
 _ZN13Qt3DAnimation21QVertexBlendAnimation16staticMetaObjectE@Qt_5 5.9.0
 _ZN13Qt3DAnimation21QVertexBlendAnimation17removeMorphTargetEPNS_12QMorphTargetE@Qt_5 5.9.0
 _ZN13Qt3DAnimation21QVertexBlendAnimation17targetNameChangedERK7QString@Qt_5 5.9.0
 _ZN13Qt3DAnimation21QVertexBlendAnimation18setTargetPositionsERK7QVectorIfE@Qt_5 5.9.0
 _ZN13Qt3DAnimation21QVertexBlendAnimation19interpolatorChangedEf@Qt_5 5.9.0
 _ZN13Qt3DAnimation21QVertexBlendAnimation22targetPositionsChangedERK7QVectorIfE@Qt_5 5.9.0
 _ZN13Qt3DAnimation21QVertexBlendAnimation9setTargetEPN10Qt3DRender17QGeometryRendererE@Qt_5 5.9.0
 _ZN13Qt3DAnimation21QVertexBlendAnimationC1EP7QObject@Qt_5 5.9.0
 _ZN13Qt3DAnimation21QVertexBlendAnimationC2EP7QObject@Qt_5 5.9.0
 _ZN13Qt3DAnimation22QAbstractAnimationClip11qt_metacallEN11QMetaObject4CallEiPPv@Qt_5 5.9.0
 _ZN13Qt3DAnimation22QAbstractAnimationClip11qt_metacastEPKc@Qt_5 5.9.0
 _ZN13Qt3DAnimation22QAbstractAnimationClip15durationChangedEf@Qt_5 5.9.0
 _ZN13Qt3DAnimation22QAbstractAnimationClip16sceneChangeEventERK14QSharedPointerIN8Qt3DCore12QSceneChangeEE@Qt_5 5.9.0
 _ZN13Qt3DAnimation22QAbstractAnimationClip16staticMetaObjectE@Qt_5 5.9.0
 _ZN13Qt3DAnimation22QAbstractAnimationClipC1ERNS_29QAbstractAnimationClipPrivateEPN8Qt3DCore5QNodeE@Qt_5 5.9.0
 _ZN13Qt3DAnimation22QAbstractAnimationClipC2ERNS_29QAbstractAnimationClipPrivateEPN8Qt3DCore5QNodeE@Qt_5 5.9.0
 _ZN13Qt3DAnimation22QAbstractAnimationClipD0Ev@Qt_5 5.9.0
 _ZN13Qt3DAnimation22QAbstractAnimationClipD1Ev@Qt_5 5.9.0
 _ZN13Qt3DAnimation22QAbstractAnimationClipD2Ev@Qt_5 5.9.0
 _ZN13Qt3DAnimation22QAbstractClipBlendNode11qt_metacallEN11QMetaObject4CallEiPPv@Qt_5 5.9.0
 _ZN13Qt3DAnimation22QAbstractClipBlendNode11qt_metacastEPKc@Qt_5 5.9.0
 _ZN13Qt3DAnimation22QAbstractClipBlendNode16staticMetaObjectE@Qt_5 5.9.0
 _ZN13Qt3DAnimation22QAbstractClipBlendNodeC1EPN8Qt3DCore5QNodeE@Qt_5 5.9.0
 _ZN13Qt3DAnimation22QAbstractClipBlendNodeC1ERNS_29QAbstractClipBlendNodePrivateEPN8Qt3DCore5QNodeE@Qt_5 5.9.0
 _ZN13Qt3DAnimation22QAbstractClipBlendNodeC2EPN8Qt3DCore5QNodeE@Qt_5 5.9.0
 _ZN13Qt3DAnimation22QAbstractClipBlendNodeC2ERNS_29QAbstractClipBlendNodePrivateEPN8Qt3DCore5QNodeE@Qt_5 5.9.0
 _ZN13Qt3DAnimation22QAbstractClipBlendNodeD0Ev@Qt_5 5.9.0
 _ZN13Qt3DAnimation22QAbstractClipBlendNodeD1Ev@Qt_5 5.9.0
 _ZN13Qt3DAnimation22QAbstractClipBlendNodeD2Ev@Qt_5 5.9.0
 _ZN13Qt3DAnimation31QClipBlendNodeCreatedChangeBaseC1EPKNS_22QAbstractClipBlendNodeE@Qt_5 5.9.0
 _ZN13Qt3DAnimation31QClipBlendNodeCreatedChangeBaseC2EPKNS_22QAbstractClipBlendNodeE@Qt_5 5.9.0
 _ZN13Qt3DAnimation31QClipBlendNodeCreatedChangeBaseD0Ev@Qt_5 5.9.0
 _ZN13Qt3DAnimation31QClipBlendNodeCreatedChangeBaseD1Ev@Qt_5 5.9.0
 _ZN13Qt3DAnimation31QClipBlendNodeCreatedChangeBaseD2Ev@Qt_5 5.9.0
 _ZN13Qt3DAnimation8QChannel22appendChannelComponentERKNS_17QChannelComponentE@Qt_5 5.9.0
 _ZN13Qt3DAnimation8QChannel22clearChannelComponentsEv@Qt_5 5.9.0
 _ZN13Qt3DAnimation8QChannel22insertChannelComponentEiRKNS_17QChannelComponentE@Qt_5 5.9.0
 _ZN13Qt3DAnimation8QChannel22removeChannelComponentEi@Qt_5 5.9.0
 _ZN13Qt3DAnimation8QChannel7setNameERK7QString@Qt_5 5.9.0
 _ZN13Qt3DAnimation8QChannelC1ERK7QString@Qt_5 5.9.0
 _ZN13Qt3DAnimation8QChannelC1ERKS0_@Qt_5 5.9.0
 _ZN13Qt3DAnimation8QChannelC1Ev@Qt_5 5.9.0
 _ZN13Qt3DAnimation8QChannelC2ERK7QString@Qt_5 5.9.0
 _ZN13Qt3DAnimation8QChannelC2ERKS0_@Qt_5 5.9.0
 _ZN13Qt3DAnimation8QChannelC2Ev@Qt_5 5.9.0
 _ZN13Qt3DAnimation8QChannelD1Ev@Qt_5 5.9.0
 _ZN13Qt3DAnimation8QChannelD2Ev@Qt_5 5.9.0
 _ZN13Qt3DAnimation8QChannelaSERKS0_@Qt_5 5.9.0
 _ZNK13Qt3DAnimation12QMorphTarget10metaObjectEv@Qt_5 5.9.0
 _ZNK13Qt3DAnimation12QMorphTarget13attributeListEv@Qt_5 5.9.0
 _ZNK13Qt3DAnimation12QMorphTarget14attributeNamesEv@Qt_5 5.9.0
 _ZNK13Qt3DAnimation13QClipAnimator10metaObjectEv@Qt_5 5.9.0
 _ZNK13Qt3DAnimation13QClipAnimator24createNodeCreationChangeEv@Qt_5 5.9.0
 _ZNK13Qt3DAnimation13QClipAnimator4clipEv@Qt_5 5.9.0
 _ZNK13Qt3DAnimation14QAnimationClip10metaObjectEv@Qt_5 5.9.0
 _ZNK13Qt3DAnimation14QAnimationClip24createNodeCreationChangeEv@Qt_5 5.9.0
 _ZNK13Qt3DAnimation14QAnimationClip8clipDataEv@Qt_5 5.9.0
 _ZNK13Qt3DAnimation14QChannelMapper10metaObjectEv@Qt_5 5.9.0
 _ZNK13Qt3DAnimation14QChannelMapper24createNodeCreationChangeEv@Qt_5 5.9.0
 _ZNK13Qt3DAnimation14QChannelMapper8mappingsEv@Qt_5 5.9.0
 _ZNK13Qt3DAnimation14QLerpClipBlend10metaObjectEv@Qt_5 5.9.0
 _ZNK13Qt3DAnimation14QLerpClipBlend11blendFactorEv@Qt_5 5.9.0
 _ZNK13Qt3DAnimation14QLerpClipBlend24createNodeCreationChangeEv@Qt_5 5.9.0
 _ZNK13Qt3DAnimation14QLerpClipBlend7endClipEv@Qt_5 5.9.0
 _ZNK13Qt3DAnimation14QLerpClipBlend9startClipEv@Qt_5 5.9.0
 _ZNK13Qt3DAnimation15QAnimationGroup10metaObjectEv@Qt_5 5.9.0
 _ZNK13Qt3DAnimation15QAnimationGroup4nameEv@Qt_5 5.9.0
 _ZNK13Qt3DAnimation15QAnimationGroup8durationEv@Qt_5 5.9.0
 _ZNK13Qt3DAnimation15QAnimationGroup8positionEv@Qt_5 5.9.0
 _ZNK13Qt3DAnimation15QChannelMapping10metaObjectEv@Qt_5 5.9.0
 _ZNK13Qt3DAnimation15QChannelMapping11channelNameEv@Qt_5 5.9.0
 _ZNK13Qt3DAnimation15QChannelMapping24createNodeCreationChangeEv@Qt_5 5.9.0
 _ZNK13Qt3DAnimation15QChannelMapping6targetEv@Qt_5 5.9.0
 _ZNK13Qt3DAnimation15QChannelMapping8propertyEv@Qt_5 5.9.0
 _ZNK13Qt3DAnimation15QClipBlendValue10metaObjectEv@Qt_5 5.9.0
 _ZNK13Qt3DAnimation15QClipBlendValue24createNodeCreationChangeEv@Qt_5 5.9.0
 _ZNK13Qt3DAnimation15QClipBlendValue4clipEv@Qt_5 5.9.0
 _ZNK13Qt3DAnimation16QAnimationAspect10metaObjectEv@Qt_5 5.9.0
 _ZNK13Qt3DAnimation17QChannelComponent13keyFrameCountEv@Qt_5 5.9.0
 _ZNK13Qt3DAnimation17QChannelComponent3endEv@Qt_5 5.9.0
 _ZNK13Qt3DAnimation17QChannelComponent4nameEv@Qt_5 5.9.0
 _ZNK13Qt3DAnimation17QChannelComponent5beginEv@Qt_5 5.9.0
 _ZNK13Qt3DAnimation18QAbstractAnimation10metaObjectEv@Qt_5 5.9.0
 _ZNK13Qt3DAnimation18QAbstractAnimation13animationNameEv@Qt_5 5.9.0
 _ZNK13Qt3DAnimation18QAbstractAnimation13animationTypeEv@Qt_5 5.9.0
 _ZNK13Qt3DAnimation18QAbstractAnimation8durationEv@Qt_5 5.9.0
 _ZNK13Qt3DAnimation18QAbstractAnimation8positionEv@Qt_5 5.9.0
 _ZNK13Qt3DAnimation18QAdditiveClipBlend10metaObjectEv@Qt_5 5.9.0
 _ZNK13Qt3DAnimation18QAdditiveClipBlend12additiveClipEv@Qt_5 5.9.0
 _ZNK13Qt3DAnimation18QAdditiveClipBlend14additiveFactorEv@Qt_5 5.9.0
 _ZNK13Qt3DAnimation18QAdditiveClipBlend24createNodeCreationChangeEv@Qt_5 5.9.0
 _ZNK13Qt3DAnimation18QAdditiveClipBlend8baseClipEv@Qt_5 5.9.0
 _ZNK13Qt3DAnimation18QAnimationClipData12channelCountEv@Qt_5 5.9.0
 _ZNK13Qt3DAnimation18QAnimationClipData3endEv@Qt_5 5.9.0
 _ZNK13Qt3DAnimation18QAnimationClipData4nameEv@Qt_5 5.9.0
 _ZNK13Qt3DAnimation18QAnimationClipData5beginEv@Qt_5 5.9.0
 _ZNK13Qt3DAnimation18QAnimationClipData7isValidEv@Qt_5 5.9.0
 _ZNK13Qt3DAnimation18QKeyframeAnimation10metaObjectEv@Qt_5 5.9.0
 _ZNK13Qt3DAnimation18QKeyframeAnimation10targetNameEv@Qt_5 5.9.0
 _ZNK13Qt3DAnimation18QKeyframeAnimation12keyframeListEv@Qt_5 5.9.0
 _ZNK13Qt3DAnimation18QKeyframeAnimation14framePositionsEv@Qt_5 5.9.0
 _ZNK13Qt3DAnimation18QKeyframeAnimation6easingEv@Qt_5 5.9.0
 _ZNK13Qt3DAnimation18QKeyframeAnimation6targetEv@Qt_5 5.9.0
 _ZNK13Qt3DAnimation18QKeyframeAnimation7endModeEv@Qt_5 5.9.0
 _ZNK13Qt3DAnimation18QKeyframeAnimation9startModeEv@Qt_5 5.9.0
 _ZNK13Qt3DAnimation18QMorphingAnimation10metaObjectEv@Qt_5 5.9.0
 _ZNK13Qt3DAnimation18QMorphingAnimation10targetNameEv@Qt_5 5.9.0
 _ZNK13Qt3DAnimation18QMorphingAnimation12interpolatorEv@Qt_5 5.9.0
 _ZNK13Qt3DAnimation18QMorphingAnimation15targetPositionsEv@Qt_5 5.9.0
 _ZNK13Qt3DAnimation18QMorphingAnimation6easingEv@Qt_5 5.9.0
 _ZNK13Qt3DAnimation18QMorphingAnimation6methodEv@Qt_5 5.9.0
 _ZNK13Qt3DAnimation18QMorphingAnimation6targetEv@Qt_5 5.9.0
 _ZNK13Qt3DAnimation20QAnimationClipLoader10metaObjectEv@Qt_5 5.9.0
 _ZNK13Qt3DAnimation20QAnimationClipLoader24createNodeCreationChangeEv@Qt_5 5.9.0
 _ZNK13Qt3DAnimation20QAnimationClipLoader6sourceEv@Qt_5 5.9.0
 _ZNK13Qt3DAnimation20QAnimationClipLoader6statusEv@Qt_5 5.9.0
 _ZNK13Qt3DAnimation20QAnimationController10metaObjectEv@Qt_5 5.9.0
 _ZNK13Qt3DAnimation20QAnimationController13positionScaleEv@Qt_5 5.9.0
 _ZNK13Qt3DAnimation20QAnimationController14positionOffsetEv@Qt_5 5.9.0
 _ZNK13Qt3DAnimation20QAnimationController17getAnimationIndexERK7QString@Qt_5 5.9.0
 _ZNK13Qt3DAnimation20QAnimationController20activeAnimationGroupEv@Qt_5 5.9.0
 _ZNK13Qt3DAnimation20QAnimationController6entityEv@Qt_5 5.9.0
 _ZNK13Qt3DAnimation20QAnimationController8getGroupEi@Qt_5 5.9.0
 _ZNK13Qt3DAnimation20QAnimationController8positionEv@Qt_5 5.9.0
 _ZNK13Qt3DAnimation20QAnimationController9recursiveEv@Qt_5 5.9.0
 _ZNK13Qt3DAnimation20QBlendedClipAnimator10metaObjectEv@Qt_5 5.9.0
 _ZNK13Qt3DAnimation20QBlendedClipAnimator24createNodeCreationChangeEv@Qt_5 5.9.0
 _ZNK13Qt3DAnimation20QBlendedClipAnimator9blendTreeEv@Qt_5 5.9.0
 _ZNK13Qt3DAnimation21QAbstractClipAnimator10metaObjectEv@Qt_5 5.9.0
 _ZNK13Qt3DAnimation21QAbstractClipAnimator13channelMapperEv@Qt_5 5.9.0
 _ZNK13Qt3DAnimation21QAbstractClipAnimator9isRunningEv@Qt_5 5.9.0
 _ZNK13Qt3DAnimation21QAbstractClipAnimator9loopCountEv@Qt_5 5.9.0
 _ZNK13Qt3DAnimation21QVertexBlendAnimation10metaObjectEv@Qt_5 5.9.0
 _ZNK13Qt3DAnimation21QVertexBlendAnimation10targetNameEv@Qt_5 5.9.0
 _ZNK13Qt3DAnimation21QVertexBlendAnimation12interpolatorEv@Qt_5 5.9.0
 _ZNK13Qt3DAnimation21QVertexBlendAnimation15targetPositionsEv@Qt_5 5.9.0
 _ZNK13Qt3DAnimation21QVertexBlendAnimation6targetEv@Qt_5 5.9.0
 _ZNK13Qt3DAnimation22QAbstractAnimationClip10metaObjectEv@Qt_5 5.9.0
 _ZNK13Qt3DAnimation22QAbstractAnimationClip8durationEv@Qt_5 5.9.0
 _ZNK13Qt3DAnimation22QAbstractClipBlendNode10metaObjectEv@Qt_5 5.9.0
 _ZNK13Qt3DAnimation8QChannel21channelComponentCountEv@Qt_5 5.9.0
 _ZNK13Qt3DAnimation8QChannel3endEv@Qt_5 5.9.0
 _ZNK13Qt3DAnimation8QChannel4nameEv@Qt_5 5.9.0
 _ZNK13Qt3DAnimation8QChannel5beginEv@Qt_5 5.9.0
 _ZTIN13Qt3DAnimation12QMorphTargetE@Qt_5 5.9.0
 _ZTIN13Qt3DAnimation13QClipAnimatorE@Qt_5 5.9.0
 _ZTIN13Qt3DAnimation14QAnimationClipE@Qt_5 5.9.0
 _ZTIN13Qt3DAnimation14QChannelMapperE@Qt_5 5.9.0
 _ZTIN13Qt3DAnimation14QLerpClipBlendE@Qt_5 5.9.0
 _ZTIN13Qt3DAnimation15QAnimationGroupE@Qt_5 5.9.0
 _ZTIN13Qt3DAnimation15QChannelMappingE@Qt_5 5.9.0
 _ZTIN13Qt3DAnimation15QClipBlendValueE@Qt_5 5.9.0
 _ZTIN13Qt3DAnimation16QAnimationAspectE@Qt_5 5.9.0
 _ZTIN13Qt3DAnimation18QAbstractAnimationE@Qt_5 5.9.0
 _ZTIN13Qt3DAnimation18QAdditiveClipBlendE@Qt_5 5.9.0
 _ZTIN13Qt3DAnimation18QKeyframeAnimationE@Qt_5 5.9.0
 _ZTIN13Qt3DAnimation18QMorphingAnimationE@Qt_5 5.9.0
 _ZTIN13Qt3DAnimation20QAnimationClipLoaderE@Qt_5 5.9.0
 _ZTIN13Qt3DAnimation20QAnimationControllerE@Qt_5 5.9.0
 _ZTIN13Qt3DAnimation20QBlendedClipAnimatorE@Qt_5 5.9.0
 _ZTIN13Qt3DAnimation21QAbstractClipAnimatorE@Qt_5 5.9.0
 _ZTIN13Qt3DAnimation21QVertexBlendAnimationE@Qt_5 5.9.0
 _ZTIN13Qt3DAnimation22QAbstractAnimationClipE@Qt_5 5.9.0
 _ZTIN13Qt3DAnimation22QAbstractClipBlendNodeE@Qt_5 5.9.0
 _ZTIN13Qt3DAnimation31QClipBlendNodeCreatedChangeBaseE@Qt_5 5.9.0
 _ZTIN8Qt3DCore29QNodeCreatedChangeBasePrivateE@Qt_5 5.9.0
 _ZTSN13Qt3DAnimation12QMorphTargetE@Qt_5 5.9.0
 _ZTSN13Qt3DAnimation13QClipAnimatorE@Qt_5 5.9.0
 _ZTSN13Qt3DAnimation14QAnimationClipE@Qt_5 5.9.0
 _ZTSN13Qt3DAnimation14QChannelMapperE@Qt_5 5.9.0
 _ZTSN13Qt3DAnimation14QLerpClipBlendE@Qt_5 5.9.0
 _ZTSN13Qt3DAnimation15QAnimationGroupE@Qt_5 5.9.0
 _ZTSN13Qt3DAnimation15QChannelMappingE@Qt_5 5.9.0
 _ZTSN13Qt3DAnimation15QClipBlendValueE@Qt_5 5.9.0
 _ZTSN13Qt3DAnimation16QAnimationAspectE@Qt_5 5.9.0
 _ZTSN13Qt3DAnimation18QAbstractAnimationE@Qt_5 5.9.0
 _ZTSN13Qt3DAnimation18QAdditiveClipBlendE@Qt_5 5.9.0
 _ZTSN13Qt3DAnimation18QKeyframeAnimationE@Qt_5 5.9.0
 _ZTSN13Qt3DAnimation18QMorphingAnimationE@Qt_5 5.9.0
 _ZTSN13Qt3DAnimation20QAnimationClipLoaderE@Qt_5 5.9.0
 _ZTSN13Qt3DAnimation20QAnimationControllerE@Qt_5 5.9.0
 _ZTSN13Qt3DAnimation20QBlendedClipAnimatorE@Qt_5 5.9.0
 _ZTSN13Qt3DAnimation21QAbstractClipAnimatorE@Qt_5 5.9.0
 _ZTSN13Qt3DAnimation21QVertexBlendAnimationE@Qt_5 5.9.0
 _ZTSN13Qt3DAnimation22QAbstractAnimationClipE@Qt_5 5.9.0
 _ZTSN13Qt3DAnimation22QAbstractClipBlendNodeE@Qt_5 5.9.0
 _ZTSN13Qt3DAnimation31QClipBlendNodeCreatedChangeBaseE@Qt_5 5.9.0
 _ZTSN8Qt3DCore29QNodeCreatedChangeBasePrivateE@Qt_5 5.9.0
 _ZTVN13Qt3DAnimation12QMorphTargetE@Qt_5 5.9.0
 _ZTVN13Qt3DAnimation13QClipAnimatorE@Qt_5 5.9.0
 _ZTVN13Qt3DAnimation14QAnimationClipE@Qt_5 5.9.0
 _ZTVN13Qt3DAnimation14QChannelMapperE@Qt_5 5.9.0
 _ZTVN13Qt3DAnimation14QLerpClipBlendE@Qt_5 5.9.0
 _ZTVN13Qt3DAnimation15QAnimationGroupE@Qt_5 5.9.0
 _ZTVN13Qt3DAnimation15QChannelMappingE@Qt_5 5.9.0
 _ZTVN13Qt3DAnimation15QClipBlendValueE@Qt_5 5.9.0
 _ZTVN13Qt3DAnimation16QAnimationAspectE@Qt_5 5.9.0
 _ZTVN13Qt3DAnimation18QAbstractAnimationE@Qt_5 5.9.0
 _ZTVN13Qt3DAnimation18QAdditiveClipBlendE@Qt_5 5.9.0
 _ZTVN13Qt3DAnimation18QKeyframeAnimationE@Qt_5 5.9.0
 _ZTVN13Qt3DAnimation18QMorphingAnimationE@Qt_5 5.9.0
 _ZTVN13Qt3DAnimation20QAnimationClipLoaderE@Qt_5 5.9.0
 _ZTVN13Qt3DAnimation20QAnimationControllerE@Qt_5 5.9.0
 _ZTVN13Qt3DAnimation20QBlendedClipAnimatorE@Qt_5 5.9.0
 _ZTVN13Qt3DAnimation21QAbstractClipAnimatorE@Qt_5 5.9.0
 _ZTVN13Qt3DAnimation21QVertexBlendAnimationE@Qt_5 5.9.0
 _ZTVN13Qt3DAnimation22QAbstractAnimationClipE@Qt_5 5.9.0
 _ZTVN13Qt3DAnimation22QAbstractClipBlendNodeE@Qt_5 5.9.0
 _ZTVN13Qt3DAnimation31QClipBlendNodeCreatedChangeBaseE@Qt_5 5.9.0
 _ZTVN8Qt3DCore29QNodeCreatedChangeBasePrivateE@Qt_5 5.9.0
