# SymbolsHelper-Confirmed: 5.9.0 amd64
libQt53DQuickInput.so.5 libqt53dquickinput5 #MINVER#
 Qt_5.0@Qt_5.0 5.7.1~20161122
 Qt_5.1@Qt_5.1 5.7.1~20161122
 Qt_5.2@Qt_5.2 5.7.1~20161122
 Qt_5.3@Qt_5.3 5.7.1~20161122
 Qt_5.4@Qt_5.4 5.7.1~20161122
 Qt_5.5@Qt_5.5 5.7.1~20161122
 Qt_5.6@Qt_5.6 5.7.1~20161122
 Qt_5.7@Qt_5.7 5.7.1~20161122
 Qt_5.8@Qt_5.8 5.9.0
 Qt_5.9@Qt_5.9 5.9.0
 Qt_5@Qt_5 5.7.1~20161122
 Qt_5_PRIVATE_API@Qt_5_PRIVATE_API 5.7.1~20161122
 _ZN9Qt3DInput5Input5Quick11Quick3DAxis11axisInputAtEP16QQmlListPropertyINS_18QAbstractAxisInputEEi@Qt_5 5.7.1~20161122
 _ZN9Qt3DInput5Input5Quick11Quick3DAxis11qt_metacallEN11QMetaObject4CallEiPPv@Qt_5 5.7.1~20161122
 _ZN9Qt3DInput5Input5Quick11Quick3DAxis11qt_metacastEPKc@Qt_5 5.7.1~20161122
 _ZN9Qt3DInput5Input5Quick11Quick3DAxis13qmlAxisInputsEv@Qt_5 5.7.1~20161122
 _ZN9Qt3DInput5Input5Quick11Quick3DAxis14axesInputCountEP16QQmlListPropertyINS_18QAbstractAxisInputEE@Qt_5 5.7.1~20161122
 _ZN9Qt3DInput5Input5Quick11Quick3DAxis15appendAxisInputEP16QQmlListPropertyINS_18QAbstractAxisInputEEPS4_@Qt_5 5.7.1~20161122
 _ZN9Qt3DInput5Input5Quick11Quick3DAxis15clearAxisInputsEP16QQmlListPropertyINS_18QAbstractAxisInputEE@Qt_5 5.7.1~20161122
 _ZN9Qt3DInput5Input5Quick11Quick3DAxis16staticMetaObjectE@Qt_5 5.7.1~20161122
 _ZN9Qt3DInput5Input5Quick11Quick3DAxisC1EP7QObject@Qt_5 5.7.1~20161122
 _ZN9Qt3DInput5Input5Quick11Quick3DAxisC2EP7QObject@Qt_5 5.7.1~20161122
 _ZN9Qt3DInput5Input5Quick13Quick3DAction11qt_metacallEN11QMetaObject4CallEiPPv@Qt_5 5.7.1~20161122
 _ZN9Qt3DInput5Input5Quick13Quick3DAction11qt_metacastEPKc@Qt_5 5.7.1~20161122
 _ZN9Qt3DInput5Input5Quick13Quick3DAction13actionInputAtEP16QQmlListPropertyINS_20QAbstractActionInputEEi@Qt_5 5.7.1~20161122
 _ZN9Qt3DInput5Input5Quick13Quick3DAction15qmlActionInputsEv@Qt_5 5.7.1~20161122
 _ZN9Qt3DInput5Input5Quick13Quick3DAction16actionInputCountEP16QQmlListPropertyINS_20QAbstractActionInputEE@Qt_5 5.7.1~20161122
 _ZN9Qt3DInput5Input5Quick13Quick3DAction16staticMetaObjectE@Qt_5 5.7.1~20161122
 _ZN9Qt3DInput5Input5Quick13Quick3DAction17appendActionInputEP16QQmlListPropertyINS_20QAbstractActionInputEEPS4_@Qt_5 5.7.1~20161122
 _ZN9Qt3DInput5Input5Quick13Quick3DAction17clearActionInputsEP16QQmlListPropertyINS_20QAbstractActionInputEE@Qt_5 5.7.1~20161122
 _ZN9Qt3DInput5Input5Quick13Quick3DActionC1EP7QObject@Qt_5 5.7.1~20161122
 _ZN9Qt3DInput5Input5Quick13Quick3DActionC2EP7QObject@Qt_5 5.7.1~20161122
 _ZN9Qt3DInput5Input5Quick17Quick3DInputChord11qt_metacallEN11QMetaObject4CallEiPPv@Qt_5 5.7.1~20161122
 _ZN9Qt3DInput5Input5Quick17Quick3DInputChord11qt_metacastEPKc@Qt_5 5.7.1~20161122
 _ZN9Qt3DInput5Input5Quick17Quick3DInputChord13actionInputAtEP16QQmlListPropertyINS_20QAbstractActionInputEEi@Qt_5 5.7.1~20161122
 _ZN9Qt3DInput5Input5Quick17Quick3DInputChord15qmlActionInputsEv@Qt_5 5.7.1~20161122
 _ZN9Qt3DInput5Input5Quick17Quick3DInputChord16actionInputCountEP16QQmlListPropertyINS_20QAbstractActionInputEE@Qt_5 5.7.1~20161122
 _ZN9Qt3DInput5Input5Quick17Quick3DInputChord16staticMetaObjectE@Qt_5 5.7.1~20161122
 _ZN9Qt3DInput5Input5Quick17Quick3DInputChord17appendActionInputEP16QQmlListPropertyINS_20QAbstractActionInputEEPS4_@Qt_5 5.7.1~20161122
 _ZN9Qt3DInput5Input5Quick17Quick3DInputChord17clearActionInputsEP16QQmlListPropertyINS_20QAbstractActionInputEE@Qt_5 5.7.1~20161122
 _ZN9Qt3DInput5Input5Quick17Quick3DInputChordC1EP7QObject@Qt_5 5.7.1~20161122
 _ZN9Qt3DInput5Input5Quick17Quick3DInputChordC2EP7QObject@Qt_5 5.7.1~20161122
 _ZN9Qt3DInput5Input5Quick20Quick3DInputSequence11qt_metacallEN11QMetaObject4CallEiPPv@Qt_5 5.7.1~20161122
 _ZN9Qt3DInput5Input5Quick20Quick3DInputSequence11qt_metacastEPKc@Qt_5 5.7.1~20161122
 _ZN9Qt3DInput5Input5Quick20Quick3DInputSequence13actionInputAtEP16QQmlListPropertyINS_20QAbstractActionInputEEi@Qt_5 5.7.1~20161122
 _ZN9Qt3DInput5Input5Quick20Quick3DInputSequence15qmlActionInputsEv@Qt_5 5.7.1~20161122
 _ZN9Qt3DInput5Input5Quick20Quick3DInputSequence16actionInputCountEP16QQmlListPropertyINS_20QAbstractActionInputEE@Qt_5 5.7.1~20161122
 _ZN9Qt3DInput5Input5Quick20Quick3DInputSequence16staticMetaObjectE@Qt_5 5.7.1~20161122
 _ZN9Qt3DInput5Input5Quick20Quick3DInputSequence17appendActionInputEP16QQmlListPropertyINS_20QAbstractActionInputEEPS4_@Qt_5 5.7.1~20161122
 _ZN9Qt3DInput5Input5Quick20Quick3DInputSequence17clearActionInputsEP16QQmlListPropertyINS_20QAbstractActionInputEE@Qt_5 5.7.1~20161122
 _ZN9Qt3DInput5Input5Quick20Quick3DInputSequenceC1EP7QObject@Qt_5 5.7.1~20161122
 _ZN9Qt3DInput5Input5Quick20Quick3DInputSequenceC2EP7QObject@Qt_5 5.7.1~20161122
 _ZN9Qt3DInput5Input5Quick20Quick3DLogicalDevice10appendAxisEP16QQmlListPropertyINS_5QAxisEEPS4_@Qt_5 5.7.1~20161122
 _ZN9Qt3DInput5Input5Quick20Quick3DLogicalDevice10qmlActionsEv@Qt_5 5.7.1~20161122
 _ZN9Qt3DInput5Input5Quick20Quick3DLogicalDevice11actionCountEP16QQmlListPropertyINS_7QActionEE@Qt_5 5.7.1~20161122
 _ZN9Qt3DInput5Input5Quick20Quick3DLogicalDevice11qt_metacallEN11QMetaObject4CallEiPPv@Qt_5 5.7.1~20161122
 _ZN9Qt3DInput5Input5Quick20Quick3DLogicalDevice11qt_metacastEPKc@Qt_5 5.7.1~20161122
 _ZN9Qt3DInput5Input5Quick20Quick3DLogicalDevice12appendActionEP16QQmlListPropertyINS_7QActionEEPS4_@Qt_5 5.7.1~20161122
 _ZN9Qt3DInput5Input5Quick20Quick3DLogicalDevice12clearActionsEP16QQmlListPropertyINS_7QActionEE@Qt_5 5.7.1~20161122
 _ZN9Qt3DInput5Input5Quick20Quick3DLogicalDevice16staticMetaObjectE@Qt_5 5.7.1~20161122
 _ZN9Qt3DInput5Input5Quick20Quick3DLogicalDevice6axisAtEP16QQmlListPropertyINS_5QAxisEEi@Qt_5 5.7.1~20161122
 _ZN9Qt3DInput5Input5Quick20Quick3DLogicalDevice7qmlAxesEv@Qt_5 5.7.1~20161122
 _ZN9Qt3DInput5Input5Quick20Quick3DLogicalDevice8actionAtEP16QQmlListPropertyINS_7QActionEEi@Qt_5 5.7.1~20161122
 _ZN9Qt3DInput5Input5Quick20Quick3DLogicalDevice9axesCountEP16QQmlListPropertyINS_5QAxisEE@Qt_5 5.7.1~20161122
 _ZN9Qt3DInput5Input5Quick20Quick3DLogicalDevice9clearAxesEP16QQmlListPropertyINS_5QAxisEE@Qt_5 5.7.1~20161122
 _ZN9Qt3DInput5Input5Quick20Quick3DLogicalDeviceC1EP7QObject@Qt_5 5.7.1~20161122
 _ZN9Qt3DInput5Input5Quick20Quick3DLogicalDeviceC2EP7QObject@Qt_5 5.7.1~20161122
 _ZN9Qt3DInput5Input5Quick21Quick3DPhysicalDevice11qt_metacallEN11QMetaObject4CallEiPPv@Qt_5 5.7.1~20161122
 _ZN9Qt3DInput5Input5Quick21Quick3DPhysicalDevice11qt_metacastEPKc@Qt_5 5.7.1~20161122
 _ZN9Qt3DInput5Input5Quick21Quick3DPhysicalDevice12axisSettingsEv@Qt_5 5.7.1~20161122
 _ZN9Qt3DInput5Input5Quick21Quick3DPhysicalDevice13axisSettingAtEP16QQmlListPropertyINS_12QAxisSettingEEi@Qt_5 5.7.1~20161122
 _ZN9Qt3DInput5Input5Quick21Quick3DPhysicalDevice16staticMetaObjectE@Qt_5 5.7.1~20161122
 _ZN9Qt3DInput5Input5Quick21Quick3DPhysicalDevice17appendAxisSettingEP16QQmlListPropertyINS_12QAxisSettingEEPS4_@Qt_5 5.7.1~20161122
 _ZN9Qt3DInput5Input5Quick21Quick3DPhysicalDevice17axisSettingsCountEP16QQmlListPropertyINS_12QAxisSettingEE@Qt_5 5.7.1~20161122
 _ZN9Qt3DInput5Input5Quick21Quick3DPhysicalDevice17clearAxisSettingsEP16QQmlListPropertyINS_12QAxisSettingEE@Qt_5 5.7.1~20161122
 _ZN9Qt3DInput5Input5Quick21Quick3DPhysicalDeviceC1EP7QObject@Qt_5 5.7.1~20161122
 _ZN9Qt3DInput5Input5Quick21Quick3DPhysicalDeviceC2EP7QObject@Qt_5 5.7.1~20161122
 _ZN9Qt3DInput5Quick23Quick3DInput_initializeEv@Qt_5 5.7.1~20161122
 _ZN9Qt3DInput5Quick25Quick3DInput_registerTypeEPKcS2_ii@Qt_5 5.7.1~20161122
 _ZNK9Qt3DInput5Input5Quick11Quick3DAxis10metaObjectEv@Qt_5 5.7.1~20161122
 _ZNK9Qt3DInput5Input5Quick13Quick3DAction10metaObjectEv@Qt_5 5.7.1~20161122
 _ZNK9Qt3DInput5Input5Quick17Quick3DInputChord10metaObjectEv@Qt_5 5.7.1~20161122
 _ZNK9Qt3DInput5Input5Quick20Quick3DInputSequence10metaObjectEv@Qt_5 5.7.1~20161122
 _ZNK9Qt3DInput5Input5Quick20Quick3DLogicalDevice10metaObjectEv@Qt_5 5.7.1~20161122
 _ZNK9Qt3DInput5Input5Quick21Quick3DPhysicalDevice10metaObjectEv@Qt_5 5.7.1~20161122
 _ZTIN9Qt3DInput5Input5Quick11Quick3DAxisE@Qt_5 5.7.1~20161122
 _ZTIN9Qt3DInput5Input5Quick13Quick3DActionE@Qt_5 5.7.1~20161122
 _ZTIN9Qt3DInput5Input5Quick17Quick3DInputChordE@Qt_5 5.7.1~20161122
 _ZTIN9Qt3DInput5Input5Quick20Quick3DInputSequenceE@Qt_5 5.7.1~20161122
 _ZTIN9Qt3DInput5Input5Quick20Quick3DLogicalDeviceE@Qt_5 5.7.1~20161122
 _ZTIN9Qt3DInput5Input5Quick21Quick3DPhysicalDeviceE@Qt_5 5.7.1~20161122
 _ZTSN9Qt3DInput5Input5Quick11Quick3DAxisE@Qt_5 5.7.1~20161122
 _ZTSN9Qt3DInput5Input5Quick13Quick3DActionE@Qt_5 5.7.1~20161122
 _ZTSN9Qt3DInput5Input5Quick17Quick3DInputChordE@Qt_5 5.7.1~20161122
 _ZTSN9Qt3DInput5Input5Quick20Quick3DInputSequenceE@Qt_5 5.7.1~20161122
 _ZTSN9Qt3DInput5Input5Quick20Quick3DLogicalDeviceE@Qt_5 5.7.1~20161122
 _ZTSN9Qt3DInput5Input5Quick21Quick3DPhysicalDeviceE@Qt_5 5.7.1~20161122
 _ZTVN9Qt3DInput5Input5Quick11Quick3DAxisE@Qt_5 5.7.1~20161122
 _ZTVN9Qt3DInput5Input5Quick13Quick3DActionE@Qt_5 5.7.1~20161122
 _ZTVN9Qt3DInput5Input5Quick17Quick3DInputChordE@Qt_5 5.7.1~20161122
 _ZTVN9Qt3DInput5Input5Quick20Quick3DInputSequenceE@Qt_5 5.7.1~20161122
 _ZTVN9Qt3DInput5Input5Quick20Quick3DLogicalDeviceE@Qt_5 5.7.1~20161122
 _ZTVN9Qt3DInput5Input5Quick21Quick3DPhysicalDeviceE@Qt_5 5.7.1~20161122
