# SymbolsHelper-Confirmed: 5.9.0 amd64
libQt53DQuickAnimation.so.5 libqt53dquickanimation5 #MINVER#
 Qt_5.0@Qt_5.0 5.9.0
 Qt_5.1@Qt_5.1 5.9.0
 Qt_5.2@Qt_5.2 5.9.0
 Qt_5.3@Qt_5.3 5.9.0
 Qt_5.4@Qt_5.4 5.9.0
 Qt_5.5@Qt_5.5 5.9.0
 Qt_5.6@Qt_5.6 5.9.0
 Qt_5.7@Qt_5.7 5.9.0
 Qt_5.8@Qt_5.8 5.9.0
 Qt_5.9@Qt_5.9 5.9.0
 Qt_5@Qt_5 5.9.0
 Qt_5_PRIVATE_API@Qt_5_PRIVATE_API 5.9.0
 _ZN13Qt3DAnimation5Quick19QQuick3DMorphTarget10attributesEv@Qt_5 5.9.0
 _ZN13Qt3DAnimation5Quick19QQuick3DMorphTarget11attributeAtEP16QQmlListPropertyIN10Qt3DRender10QAttributeEEi@Qt_5 5.9.0
 _ZN13Qt3DAnimation5Quick19QQuick3DMorphTarget11qt_metacallEN11QMetaObject4CallEiPPv@Qt_5 5.9.0
 _ZN13Qt3DAnimation5Quick19QQuick3DMorphTarget11qt_metacastEPKc@Qt_5 5.9.0
 _ZN13Qt3DAnimation5Quick19QQuick3DMorphTarget14attributeCountEP16QQmlListPropertyIN10Qt3DRender10QAttributeEE@Qt_5 5.9.0
 _ZN13Qt3DAnimation5Quick19QQuick3DMorphTarget15appendAttributeEP16QQmlListPropertyIN10Qt3DRender10QAttributeEEPS4_@Qt_5 5.9.0
 _ZN13Qt3DAnimation5Quick19QQuick3DMorphTarget15clearAttributesEP16QQmlListPropertyIN10Qt3DRender10QAttributeEE@Qt_5 5.9.0
 _ZN13Qt3DAnimation5Quick19QQuick3DMorphTarget16staticMetaObjectE@Qt_5 5.9.0
 _ZN13Qt3DAnimation5Quick19QQuick3DMorphTargetC1EP7QObject@Qt_5 5.9.0
 _ZN13Qt3DAnimation5Quick19QQuick3DMorphTargetC2EP7QObject@Qt_5 5.9.0
 _ZN13Qt3DAnimation5Quick22QQuick3DAnimationGroup10animationsEv@Qt_5 5.9.0
 _ZN13Qt3DAnimation5Quick22QQuick3DAnimationGroup11animationAtEP16QQmlListPropertyINS_18QAbstractAnimationEEi@Qt_5 5.9.0
 _ZN13Qt3DAnimation5Quick22QQuick3DAnimationGroup11qt_metacallEN11QMetaObject4CallEiPPv@Qt_5 5.9.0
 _ZN13Qt3DAnimation5Quick22QQuick3DAnimationGroup11qt_metacastEPKc@Qt_5 5.9.0
 _ZN13Qt3DAnimation5Quick22QQuick3DAnimationGroup14animationCountEP16QQmlListPropertyINS_18QAbstractAnimationEE@Qt_5 5.9.0
 _ZN13Qt3DAnimation5Quick22QQuick3DAnimationGroup14clearAnimationEP16QQmlListPropertyINS_18QAbstractAnimationEE@Qt_5 5.9.0
 _ZN13Qt3DAnimation5Quick22QQuick3DAnimationGroup15appendAnimationEP16QQmlListPropertyINS_18QAbstractAnimationEEPS3_@Qt_5 5.9.0
 _ZN13Qt3DAnimation5Quick22QQuick3DAnimationGroup16staticMetaObjectE@Qt_5 5.9.0
 _ZN13Qt3DAnimation5Quick22QQuick3DAnimationGroupC1EP7QObject@Qt_5 5.9.0
 _ZN13Qt3DAnimation5Quick22QQuick3DAnimationGroupC2EP7QObject@Qt_5 5.9.0
 _ZN13Qt3DAnimation5Quick25QQuick3DKeyframeAnimation10keyframeAtEP16QQmlListPropertyIN8Qt3DCore10QTransformEEi@Qt_5 5.9.0
 _ZN13Qt3DAnimation5Quick25QQuick3DKeyframeAnimation11qt_metacallEN11QMetaObject4CallEiPPv@Qt_5 5.9.0
 _ZN13Qt3DAnimation5Quick25QQuick3DKeyframeAnimation11qt_metacastEPKc@Qt_5 5.9.0
 _ZN13Qt3DAnimation5Quick25QQuick3DKeyframeAnimation13keyframeCountEP16QQmlListPropertyIN8Qt3DCore10QTransformEE@Qt_5 5.9.0
 _ZN13Qt3DAnimation5Quick25QQuick3DKeyframeAnimation14appendKeyframeEP16QQmlListPropertyIN8Qt3DCore10QTransformEEPS4_@Qt_5 5.9.0
 _ZN13Qt3DAnimation5Quick25QQuick3DKeyframeAnimation14clearKeyframesEP16QQmlListPropertyIN8Qt3DCore10QTransformEE@Qt_5 5.9.0
 _ZN13Qt3DAnimation5Quick25QQuick3DKeyframeAnimation16staticMetaObjectE@Qt_5 5.9.0
 _ZN13Qt3DAnimation5Quick25QQuick3DKeyframeAnimation9keyframesEv@Qt_5 5.9.0
 _ZN13Qt3DAnimation5Quick25QQuick3DKeyframeAnimationC1EP7QObject@Qt_5 5.9.0
 _ZN13Qt3DAnimation5Quick25QQuick3DKeyframeAnimationC2EP7QObject@Qt_5 5.9.0
 _ZN13Qt3DAnimation5Quick25QQuick3DMorphingAnimation11qt_metacallEN11QMetaObject4CallEiPPv@Qt_5 5.9.0
 _ZN13Qt3DAnimation5Quick25QQuick3DMorphingAnimation11qt_metacastEPKc@Qt_5 5.9.0
 _ZN13Qt3DAnimation5Quick25QQuick3DMorphingAnimation12morphTargetsEv@Qt_5 5.9.0
 _ZN13Qt3DAnimation5Quick25QQuick3DMorphingAnimation13morphTargetAtEP16QQmlListPropertyINS_12QMorphTargetEEi@Qt_5 5.9.0
 _ZN13Qt3DAnimation5Quick25QQuick3DMorphingAnimation16morphTargetCountEP16QQmlListPropertyINS_12QMorphTargetEE@Qt_5 5.9.0
 _ZN13Qt3DAnimation5Quick25QQuick3DMorphingAnimation16staticMetaObjectE@Qt_5 5.9.0
 _ZN13Qt3DAnimation5Quick25QQuick3DMorphingAnimation17appendMorphTargetEP16QQmlListPropertyINS_12QMorphTargetEEPS3_@Qt_5 5.9.0
 _ZN13Qt3DAnimation5Quick25QQuick3DMorphingAnimation17clearMorphTargetsEP16QQmlListPropertyINS_12QMorphTargetEE@Qt_5 5.9.0
 _ZN13Qt3DAnimation5Quick25QQuick3DMorphingAnimationC1EP7QObject@Qt_5 5.9.0
 _ZN13Qt3DAnimation5Quick25QQuick3DMorphingAnimationC2EP7QObject@Qt_5 5.9.0
 _ZN13Qt3DAnimation5Quick27QQuick3DAnimationController11qt_metacallEN11QMetaObject4CallEiPPv@Qt_5 5.9.0
 _ZN13Qt3DAnimation5Quick27QQuick3DAnimationController11qt_metacastEPKc@Qt_5 5.9.0
 _ZN13Qt3DAnimation5Quick27QQuick3DAnimationController15animationGroupsEv@Qt_5 5.9.0
 _ZN13Qt3DAnimation5Quick27QQuick3DAnimationController16animationGroupAtEP16QQmlListPropertyINS_15QAnimationGroupEEi@Qt_5 5.9.0
 _ZN13Qt3DAnimation5Quick27QQuick3DAnimationController16staticMetaObjectE@Qt_5 5.9.0
 _ZN13Qt3DAnimation5Quick27QQuick3DAnimationController19animationGroupCountEP16QQmlListPropertyINS_15QAnimationGroupEE@Qt_5 5.9.0
 _ZN13Qt3DAnimation5Quick27QQuick3DAnimationController20appendAnimationGroupEP16QQmlListPropertyINS_15QAnimationGroupEEPS3_@Qt_5 5.9.0
 _ZN13Qt3DAnimation5Quick27QQuick3DAnimationController20clearAnimationGroupsEP16QQmlListPropertyINS_15QAnimationGroupEE@Qt_5 5.9.0
 _ZN13Qt3DAnimation5Quick27QQuick3DAnimationControllerC1EP7QObject@Qt_5 5.9.0
 _ZN13Qt3DAnimation5Quick27QQuick3DAnimationControllerC2EP7QObject@Qt_5 5.9.0
 _ZN13Qt3DAnimation5Quick27Quick3DAnimation_initializeEv@Qt_5 5.9.0
 _ZN13Qt3DAnimation5Quick28QQuick3DVertexBlendAnimation11qt_metacallEN11QMetaObject4CallEiPPv@Qt_5 5.9.0
 _ZN13Qt3DAnimation5Quick28QQuick3DVertexBlendAnimation11qt_metacastEPKc@Qt_5 5.9.0
 _ZN13Qt3DAnimation5Quick28QQuick3DVertexBlendAnimation12morphTargetsEv@Qt_5 5.9.0
 _ZN13Qt3DAnimation5Quick28QQuick3DVertexBlendAnimation13morphTargetAtEP16QQmlListPropertyINS_12QMorphTargetEEi@Qt_5 5.9.0
 _ZN13Qt3DAnimation5Quick28QQuick3DVertexBlendAnimation16morphTargetCountEP16QQmlListPropertyINS_12QMorphTargetEE@Qt_5 5.9.0
 _ZN13Qt3DAnimation5Quick28QQuick3DVertexBlendAnimation16staticMetaObjectE@Qt_5 5.9.0
 _ZN13Qt3DAnimation5Quick28QQuick3DVertexBlendAnimation17appendMorphTargetEP16QQmlListPropertyINS_12QMorphTargetEEPS3_@Qt_5 5.9.0
 _ZN13Qt3DAnimation5Quick28QQuick3DVertexBlendAnimation17clearMorphTargetsEP16QQmlListPropertyINS_12QMorphTargetEE@Qt_5 5.9.0
 _ZN13Qt3DAnimation5Quick28QQuick3DVertexBlendAnimationC1EP7QObject@Qt_5 5.9.0
 _ZN13Qt3DAnimation5Quick28QQuick3DVertexBlendAnimationC2EP7QObject@Qt_5 5.9.0
 _ZN13Qt3DAnimation5Quick29Quick3DAnimation_registerTypeEPKcS2_ii@Qt_5 5.9.0
 _ZN13Qt3DAnimation9Animation5Quick20Quick3DChannelMapper11qmlMappingsEv@Qt_5 5.9.0
 _ZN13Qt3DAnimation9Animation5Quick20Quick3DChannelMapper11qt_metacallEN11QMetaObject4CallEiPPv@Qt_5 5.9.0
 _ZN13Qt3DAnimation9Animation5Quick20Quick3DChannelMapper11qt_metacastEPKc@Qt_5 5.9.0
 _ZN13Qt3DAnimation9Animation5Quick20Quick3DChannelMapper12mappingCountEP16QQmlListPropertyINS_15QChannelMappingEE@Qt_5 5.9.0
 _ZN13Qt3DAnimation9Animation5Quick20Quick3DChannelMapper13appendMappingEP16QQmlListPropertyINS_15QChannelMappingEEPS4_@Qt_5 5.9.0
 _ZN13Qt3DAnimation9Animation5Quick20Quick3DChannelMapper13clearMappingsEP16QQmlListPropertyINS_15QChannelMappingEE@Qt_5 5.9.0
 _ZN13Qt3DAnimation9Animation5Quick20Quick3DChannelMapper16staticMetaObjectE@Qt_5 5.9.0
 _ZN13Qt3DAnimation9Animation5Quick20Quick3DChannelMapper9mappingAtEP16QQmlListPropertyINS_15QChannelMappingEEi@Qt_5 5.9.0
 _ZN13Qt3DAnimation9Animation5Quick20Quick3DChannelMapperC1EP7QObject@Qt_5 5.9.0
 _ZN13Qt3DAnimation9Animation5Quick20Quick3DChannelMapperC2EP7QObject@Qt_5 5.9.0
 _ZNK13Qt3DAnimation5Quick19QQuick3DMorphTarget10metaObjectEv@Qt_5 5.9.0
 _ZNK13Qt3DAnimation5Quick22QQuick3DAnimationGroup10metaObjectEv@Qt_5 5.9.0
 _ZNK13Qt3DAnimation5Quick25QQuick3DKeyframeAnimation10metaObjectEv@Qt_5 5.9.0
 _ZNK13Qt3DAnimation5Quick25QQuick3DMorphingAnimation10metaObjectEv@Qt_5 5.9.0
 _ZNK13Qt3DAnimation5Quick27QQuick3DAnimationController10metaObjectEv@Qt_5 5.9.0
 _ZNK13Qt3DAnimation5Quick28QQuick3DVertexBlendAnimation10metaObjectEv@Qt_5 5.9.0
 _ZNK13Qt3DAnimation9Animation5Quick20Quick3DChannelMapper10metaObjectEv@Qt_5 5.9.0
 _ZTIN13Qt3DAnimation5Quick19QQuick3DMorphTargetE@Qt_5 5.9.0
 _ZTIN13Qt3DAnimation5Quick22QQuick3DAnimationGroupE@Qt_5 5.9.0
 _ZTIN13Qt3DAnimation5Quick25QQuick3DKeyframeAnimationE@Qt_5 5.9.0
 _ZTIN13Qt3DAnimation5Quick25QQuick3DMorphingAnimationE@Qt_5 5.9.0
 _ZTIN13Qt3DAnimation5Quick27QQuick3DAnimationControllerE@Qt_5 5.9.0
 _ZTIN13Qt3DAnimation5Quick28QQuick3DVertexBlendAnimationE@Qt_5 5.9.0
 _ZTIN13Qt3DAnimation9Animation5Quick20Quick3DChannelMapperE@Qt_5 5.9.0
 _ZTSN13Qt3DAnimation5Quick19QQuick3DMorphTargetE@Qt_5 5.9.0
 _ZTSN13Qt3DAnimation5Quick22QQuick3DAnimationGroupE@Qt_5 5.9.0
 _ZTSN13Qt3DAnimation5Quick25QQuick3DKeyframeAnimationE@Qt_5 5.9.0
 _ZTSN13Qt3DAnimation5Quick25QQuick3DMorphingAnimationE@Qt_5 5.9.0
 _ZTSN13Qt3DAnimation5Quick27QQuick3DAnimationControllerE@Qt_5 5.9.0
 _ZTSN13Qt3DAnimation5Quick28QQuick3DVertexBlendAnimationE@Qt_5 5.9.0
 _ZTSN13Qt3DAnimation9Animation5Quick20Quick3DChannelMapperE@Qt_5 5.9.0
 _ZTVN13Qt3DAnimation5Quick19QQuick3DMorphTargetE@Qt_5 5.9.0
 _ZTVN13Qt3DAnimation5Quick22QQuick3DAnimationGroupE@Qt_5 5.9.0
 _ZTVN13Qt3DAnimation5Quick25QQuick3DKeyframeAnimationE@Qt_5 5.9.0
 _ZTVN13Qt3DAnimation5Quick25QQuick3DMorphingAnimationE@Qt_5 5.9.0
 _ZTVN13Qt3DAnimation5Quick27QQuick3DAnimationControllerE@Qt_5 5.9.0
 _ZTVN13Qt3DAnimation5Quick28QQuick3DVertexBlendAnimationE@Qt_5 5.9.0
 _ZTVN13Qt3DAnimation9Animation5Quick20Quick3DChannelMapperE@Qt_5 5.9.0
