# SymbolsHelper-Confirmed: 5.9.0 amd64
libQt53DLogic.so.5 libqt53dlogic5 #MINVER#
 Qt_5.0@Qt_5.0 5.7.1~20161122
 Qt_5.1@Qt_5.1 5.7.1~20161122
 Qt_5.2@Qt_5.2 5.7.1~20161122
 Qt_5.3@Qt_5.3 5.7.1~20161122
 Qt_5.4@Qt_5.4 5.7.1~20161122
 Qt_5.5@Qt_5.5 5.7.1~20161122
 Qt_5.6@Qt_5.6 5.7.1~20161122
 Qt_5.7@Qt_5.7 5.7.1~20161122
 Qt_5.8@Qt_5.8 5.9.0
 Qt_5.9@Qt_5.9 5.9.0
 Qt_5@Qt_5 5.7.1~20161122
 Qt_5_PRIVATE_API@Qt_5_PRIVATE_API 5.7.1~20161122
 _ZN9Qt3DLogic12QFrameAction11onTriggeredEf@Qt_5 5.7.1~20161122
 _ZN9Qt3DLogic12QFrameAction11qt_metacallEN11QMetaObject4CallEiPPv@Qt_5 5.7.1~20161122
 _ZN9Qt3DLogic12QFrameAction11qt_metacastEPKc@Qt_5 5.7.1~20161122
 _ZN9Qt3DLogic12QFrameAction16staticMetaObjectE@Qt_5 5.7.1~20161122
 _ZN9Qt3DLogic12QFrameAction9triggeredEf@Qt_5 5.7.1~20161122
 _ZN9Qt3DLogic12QFrameActionC1EPN8Qt3DCore5QNodeE@Qt_5 5.7.1~20161122
 _ZN9Qt3DLogic12QFrameActionC1ERNS_19QFrameActionPrivateEPN8Qt3DCore5QNodeE@Qt_5 5.7.1~20161122
 _ZN9Qt3DLogic12QFrameActionC2EPN8Qt3DCore5QNodeE@Qt_5 5.7.1~20161122
 _ZN9Qt3DLogic12QFrameActionC2ERNS_19QFrameActionPrivateEPN8Qt3DCore5QNodeE@Qt_5 5.7.1~20161122
 _ZN9Qt3DLogic12QFrameActionD0Ev@Qt_5 5.7.1~20161122
 _ZN9Qt3DLogic12QFrameActionD1Ev@Qt_5 5.7.1~20161122
 _ZN9Qt3DLogic12QFrameActionD2Ev@Qt_5 5.7.1~20161122
 _ZN9Qt3DLogic12QLogicAspect11qt_metacallEN11QMetaObject4CallEiPPv@Qt_5 5.7.1~20161122
 _ZN9Qt3DLogic12QLogicAspect11qt_metacastEPKc@Qt_5 5.7.1~20161122
 _ZN9Qt3DLogic12QLogicAspect12onRegisteredEv@Qt_5 5.7.1~20161122
 _ZN9Qt3DLogic12QLogicAspect13jobsToExecuteEx@Qt_5 5.7.1~20161122
 _ZN9Qt3DLogic12QLogicAspect15onEngineStartupEv@Qt_5 5.7.1~20161122
 _ZN9Qt3DLogic12QLogicAspect16staticMetaObjectE@Qt_5 5.7.1~20161122
 _ZN9Qt3DLogic12QLogicAspectC1EP7QObject@Qt_5 5.7.1~20161122
 _ZN9Qt3DLogic12QLogicAspectC1ERNS_19QLogicAspectPrivateEP7QObject@Qt_5 5.7.1~20161122
 _ZN9Qt3DLogic12QLogicAspectC2EP7QObject@Qt_5 5.7.1~20161122
 _ZN9Qt3DLogic12QLogicAspectC2ERNS_19QLogicAspectPrivateEP7QObject@Qt_5 5.7.1~20161122
 _ZN9Qt3DLogic12QLogicAspectD0Ev@Qt_5 5.7.1~20161122
 _ZN9Qt3DLogic12QLogicAspectD1Ev@Qt_5 5.7.1~20161122
 _ZN9Qt3DLogic12QLogicAspectD2Ev@Qt_5 5.7.1~20161122
 _ZNK9Qt3DLogic12QFrameAction10metaObjectEv@Qt_5 5.7.1~20161122
 _ZNK9Qt3DLogic12QLogicAspect10metaObjectEv@Qt_5 5.7.1~20161122
 _ZTIN9Qt3DLogic12QFrameActionE@Qt_5 5.7.1~20161122
 _ZTIN9Qt3DLogic12QLogicAspectE@Qt_5 5.7.1~20161122
 _ZTSN9Qt3DLogic12QFrameActionE@Qt_5 5.7.1~20161122
 _ZTSN9Qt3DLogic12QLogicAspectE@Qt_5 5.7.1~20161122
 _ZTVN9Qt3DLogic12QFrameActionE@Qt_5 5.7.1~20161122
 _ZTVN9Qt3DLogic12QLogicAspectE@Qt_5 5.7.1~20161122
