# SymbolsHelper-Confirmed: 5.9.0 amd64
libQt53DQuickRender.so.5 libqt53dquickrender5 #MINVER#
 Qt_5.0@Qt_5.0 5.7.1~20161122
 Qt_5.1@Qt_5.1 5.7.1~20161122
 Qt_5.2@Qt_5.2 5.7.1~20161122
 Qt_5.3@Qt_5.3 5.7.1~20161122
 Qt_5.4@Qt_5.4 5.7.1~20161122
 Qt_5.5@Qt_5.5 5.7.1~20161122
 Qt_5.6@Qt_5.6 5.7.1~20161122
 Qt_5.7@Qt_5.7 5.7.1~20161122
 Qt_5.8@Qt_5.8 5.9.0
 Qt_5.9@Qt_5.9 5.9.0
 Qt_5@Qt_5 5.7.1~20161122
 Qt_5_PRIVATE_API@Qt_5_PRIVATE_API 5.7.1~20161122
 _ZN10Qt3DRender5Quick24Quick3DRender_initializeEv@Qt_5 5.7.1~20161122
 _ZN10Qt3DRender5Quick26Quick3DRender_registerTypeEPKcS2_ii@Qt_5 5.7.1~20161122
 _ZN10Qt3DRender6Render5Quick12Quick3DScene11qt_metacallEN11QMetaObject4CallEiPPv@Qt_5 5.7.1~20161122
 _ZN10Qt3DRender6Render5Quick12Quick3DScene11qt_metacastEPKc@Qt_5 5.7.1~20161122
 _ZN10Qt3DRender6Render5Quick12Quick3DScene16staticMetaObjectE@Qt_5 5.7.1~20161122
 _ZN10Qt3DRender6Render5Quick12Quick3DSceneC1EP7QObject@Qt_5 5.7.1~20161122
 _ZN10Qt3DRender6Render5Quick12Quick3DSceneC2EP7QObject@Qt_5 5.7.1~20161122
 _ZN10Qt3DRender6Render5Quick13Quick3DBuffer10updateDataEiRK8QVariant@Qt_5 5.9.0
 _ZN10Qt3DRender6Render5Quick13Quick3DBuffer11initEnginesEv@Qt_5 5.7.1~20161122
 _ZN10Qt3DRender6Render5Quick13Quick3DBuffer11qt_metacallEN11QMetaObject4CallEiPPv@Qt_5 5.7.1~20161122
 _ZN10Qt3DRender6Render5Quick13Quick3DBuffer11qt_metacastEPKc@Qt_5 5.7.1~20161122
 _ZN10Qt3DRender6Render5Quick13Quick3DBuffer13setBufferDataERK8QVariant@Qt_5 5.7.1~20161122
 _ZN10Qt3DRender6Render5Quick13Quick3DBuffer14readBinaryFileERK4QUrl@Qt_5 5.9.0
 _ZN10Qt3DRender6Render5Quick13Quick3DBuffer16convertToRawDataERK8QJSValue@Qt_5 5.7.1~20161122
 _ZN10Qt3DRender6Render5Quick13Quick3DBuffer16staticMetaObjectE@Qt_5 5.7.1~20161122
 _ZN10Qt3DRender6Render5Quick13Quick3DBuffer17bufferDataChangedEv@Qt_5 5.7.1~20161122
 _ZN10Qt3DRender6Render5Quick13Quick3DBufferC1EPN8Qt3DCore5QNodeE@Qt_5 5.9.0
 _ZN10Qt3DRender6Render5Quick13Quick3DBufferC2EPN8Qt3DCore5QNodeE@Qt_5 5.9.0
 _ZN10Qt3DRender6Render5Quick13Quick3DEffect11parameterAtEP16QQmlListPropertyINS_10QParameterEEi@Qt_5 5.7.1~20161122
 _ZN10Qt3DRender6Render5Quick13Quick3DEffect11qt_metacallEN11QMetaObject4CallEiPPv@Qt_5 5.7.1~20161122
 _ZN10Qt3DRender6Render5Quick13Quick3DEffect11qt_metacastEPKc@Qt_5 5.7.1~20161122
 _ZN10Qt3DRender6Render5Quick13Quick3DEffect11techniqueAtEP16QQmlListPropertyINS_10QTechniqueEEi@Qt_5 5.7.1~20161122
 _ZN10Qt3DRender6Render5Quick13Quick3DEffect13parameterListEv@Qt_5 5.7.1~20161122
 _ZN10Qt3DRender6Render5Quick13Quick3DEffect13techniqueListEv@Qt_5 5.7.1~20161122
 _ZN10Qt3DRender6Render5Quick13Quick3DEffect14techniqueCountEP16QQmlListPropertyINS_10QTechniqueEE@Qt_5 5.7.1~20161122
 _ZN10Qt3DRender6Render5Quick13Quick3DEffect15appendParameterEP16QQmlListPropertyINS_10QParameterEEPS4_@Qt_5 5.7.1~20161122
 _ZN10Qt3DRender6Render5Quick13Quick3DEffect15appendTechniqueEP16QQmlListPropertyINS_10QTechniqueEEPS4_@Qt_5 5.7.1~20161122
 _ZN10Qt3DRender6Render5Quick13Quick3DEffect15parametersCountEP16QQmlListPropertyINS_10QParameterEE@Qt_5 5.7.1~20161122
 _ZN10Qt3DRender6Render5Quick13Quick3DEffect16staticMetaObjectE@Qt_5 5.7.1~20161122
 _ZN10Qt3DRender6Render5Quick13Quick3DEffect18clearParameterListEP16QQmlListPropertyINS_10QParameterEE@Qt_5 5.7.1~20161122
 _ZN10Qt3DRender6Render5Quick13Quick3DEffect18clearTechniqueListEP16QQmlListPropertyINS_10QTechniqueEE@Qt_5 5.7.1~20161122
 _ZN10Qt3DRender6Render5Quick13Quick3DEffectC1EP7QObject@Qt_5 5.7.1~20161122
 _ZN10Qt3DRender6Render5Quick13Quick3DEffectC2EP7QObject@Qt_5 5.7.1~20161122
 _ZN10Qt3DRender6Render5Quick15Quick3DGeometry11attributeAtEP16QQmlListPropertyINS_10QAttributeEEi@Qt_5 5.7.1~20161122
 _ZN10Qt3DRender6Render5Quick15Quick3DGeometry11qt_metacallEN11QMetaObject4CallEiPPv@Qt_5 5.7.1~20161122
 _ZN10Qt3DRender6Render5Quick15Quick3DGeometry11qt_metacastEPKc@Qt_5 5.7.1~20161122
 _ZN10Qt3DRender6Render5Quick15Quick3DGeometry13attributeListEv@Qt_5 5.7.1~20161122
 _ZN10Qt3DRender6Render5Quick15Quick3DGeometry15appendAttributeEP16QQmlListPropertyINS_10QAttributeEEPS4_@Qt_5 5.7.1~20161122
 _ZN10Qt3DRender6Render5Quick15Quick3DGeometry15attributesCountEP16QQmlListPropertyINS_10QAttributeEE@Qt_5 5.7.1~20161122
 _ZN10Qt3DRender6Render5Quick15Quick3DGeometry15clearAttributesEP16QQmlListPropertyINS_10QAttributeEE@Qt_5 5.7.1~20161122
 _ZN10Qt3DRender6Render5Quick15Quick3DGeometry16staticMetaObjectE@Qt_5 5.7.1~20161122
 _ZN10Qt3DRender6Render5Quick15Quick3DGeometryC1EP7QObject@Qt_5 5.7.1~20161122
 _ZN10Qt3DRender6Render5Quick15Quick3DGeometryC2EP7QObject@Qt_5 5.7.1~20161122
 _ZN10Qt3DRender6Render5Quick15Quick3DMaterial11parameterAtEP16QQmlListPropertyINS_10QParameterEEi@Qt_5 5.7.1~20161122
 _ZN10Qt3DRender6Render5Quick15Quick3DMaterial11qt_metacallEN11QMetaObject4CallEiPPv@Qt_5 5.7.1~20161122
 _ZN10Qt3DRender6Render5Quick15Quick3DMaterial11qt_metacastEPKc@Qt_5 5.7.1~20161122
 _ZN10Qt3DRender6Render5Quick15Quick3DMaterial13qmlParametersEv@Qt_5 5.7.1~20161122
 _ZN10Qt3DRender6Render5Quick15Quick3DMaterial14parameterCountEP16QQmlListPropertyINS_10QParameterEE@Qt_5 5.7.1~20161122
 _ZN10Qt3DRender6Render5Quick15Quick3DMaterial15appendParameterEP16QQmlListPropertyINS_10QParameterEEPS4_@Qt_5 5.7.1~20161122
 _ZN10Qt3DRender6Render5Quick15Quick3DMaterial15clearParametersEP16QQmlListPropertyINS_10QParameterEE@Qt_5 5.7.1~20161122
 _ZN10Qt3DRender6Render5Quick15Quick3DMaterial16staticMetaObjectE@Qt_5 5.7.1~20161122
 _ZN10Qt3DRender6Render5Quick15Quick3DMaterialC1EP7QObject@Qt_5 5.7.1~20161122
 _ZN10Qt3DRender6Render5Quick15Quick3DMaterialC2EP7QObject@Qt_5 5.7.1~20161122
 _ZN10Qt3DRender6Render5Quick15Quick3DStateSet11qt_metacallEN11QMetaObject4CallEiPPv@Qt_5 5.7.1~20161122
 _ZN10Qt3DRender6Render5Quick15Quick3DStateSet11qt_metacastEPKc@Qt_5 5.7.1~20161122
 _ZN10Qt3DRender6Render5Quick15Quick3DStateSet13renderStateAtEP16QQmlListPropertyINS_12QRenderStateEEi@Qt_5 5.7.1~20161122
 _ZN10Qt3DRender6Render5Quick15Quick3DStateSet15renderStateListEv@Qt_5 5.7.1~20161122
 _ZN10Qt3DRender6Render5Quick15Quick3DStateSet16renderStateCountEP16QQmlListPropertyINS_12QRenderStateEE@Qt_5 5.7.1~20161122
 _ZN10Qt3DRender6Render5Quick15Quick3DStateSet16staticMetaObjectE@Qt_5 5.7.1~20161122
 _ZN10Qt3DRender6Render5Quick15Quick3DStateSet17appendRenderStateEP16QQmlListPropertyINS_12QRenderStateEEPS4_@Qt_5 5.7.1~20161122
 _ZN10Qt3DRender6Render5Quick15Quick3DStateSet17clearRenderStatesEP16QQmlListPropertyINS_12QRenderStateEE@Qt_5 5.7.1~20161122
 _ZN10Qt3DRender6Render5Quick15Quick3DStateSetC1EP7QObject@Qt_5 5.7.1~20161122
 _ZN10Qt3DRender6Render5Quick15Quick3DStateSetC2EP7QObject@Qt_5 5.7.1~20161122
 _ZN10Qt3DRender6Render5Quick15Quick3DStateSetD0Ev@Qt_5 5.7.1~20161122
 _ZN10Qt3DRender6Render5Quick15Quick3DStateSetD1Ev@Qt_5 5.7.1~20161122
 _ZN10Qt3DRender6Render5Quick15Quick3DStateSetD2Ev@Qt_5 5.7.1~20161122
 _ZN10Qt3DRender6Render5Quick15Quick3DViewport11qt_metacallEN11QMetaObject4CallEiPPv@Qt_5 5.7.1~20161122
 _ZN10Qt3DRender6Render5Quick15Quick3DViewport11qt_metacastEPKc@Qt_5 5.7.1~20161122
 _ZN10Qt3DRender6Render5Quick15Quick3DViewport16staticMetaObjectE@Qt_5 5.7.1~20161122
 _ZN10Qt3DRender6Render5Quick15Quick3DViewportC1EP7QObject@Qt_5 5.7.1~20161122
 _ZN10Qt3DRender6Render5Quick15Quick3DViewportC2EP7QObject@Qt_5 5.7.1~20161122
 _ZN10Qt3DRender6Render5Quick16Quick3DParameter11qt_metacallEN11QMetaObject4CallEiPPv@Qt_5 5.7.1~20161122
 _ZN10Qt3DRender6Render5Quick16Quick3DParameter11qt_metacastEPKc@Qt_5 5.7.1~20161122
 _ZN10Qt3DRender6Render5Quick16Quick3DParameter16staticMetaObjectE@Qt_5 5.7.1~20161122
 _ZN10Qt3DRender6Render5Quick16Quick3DParameterC1EPN8Qt3DCore5QNodeE@Qt_5 5.7.1~20161122
 _ZN10Qt3DRender6Render5Quick16Quick3DParameterC1ERNS1_23Quick3DParameterPrivateEPN8Qt3DCore5QNodeE@Qt_5 5.7.1~20161122
 _ZN10Qt3DRender6Render5Quick16Quick3DParameterC2EPN8Qt3DCore5QNodeE@Qt_5 5.7.1~20161122
 _ZN10Qt3DRender6Render5Quick16Quick3DParameterC2ERNS1_23Quick3DParameterPrivateEPN8Qt3DCore5QNodeE@Qt_5 5.7.1~20161122
 _ZN10Qt3DRender6Render5Quick16Quick3DTechnique11filterKeyAtEP16QQmlListPropertyINS_10QFilterKeyEEi@Qt_5 5.7.1~20161122
 _ZN10Qt3DRender6Render5Quick16Quick3DTechnique11parameterAtEP16QQmlListPropertyINS_10QParameterEEi@Qt_5 5.7.1~20161122
 _ZN10Qt3DRender6Render5Quick16Quick3DTechnique11qt_metacallEN11QMetaObject4CallEiPPv@Qt_5 5.7.1~20161122
 _ZN10Qt3DRender6Render5Quick16Quick3DTechnique11qt_metacastEPKc@Qt_5 5.7.1~20161122
 _ZN10Qt3DRender6Render5Quick16Quick3DTechnique12renderPassAtEP16QQmlListPropertyINS_11QRenderPassEEi@Qt_5 5.7.1~20161122
 _ZN10Qt3DRender6Render5Quick16Quick3DTechnique13filterKeyListEv@Qt_5 5.7.1~20161122
 _ZN10Qt3DRender6Render5Quick16Quick3DTechnique13parameterListEv@Qt_5 5.7.1~20161122
 _ZN10Qt3DRender6Render5Quick16Quick3DTechnique14filterKeyCountEP16QQmlListPropertyINS_10QFilterKeyEE@Qt_5 5.7.1~20161122
 _ZN10Qt3DRender6Render5Quick16Quick3DTechnique14renderPassListEv@Qt_5 5.7.1~20161122
 _ZN10Qt3DRender6Render5Quick16Quick3DTechnique15appendFilterKeyEP16QQmlListPropertyINS_10QFilterKeyEEPS4_@Qt_5 5.7.1~20161122
 _ZN10Qt3DRender6Render5Quick16Quick3DTechnique15appendParameterEP16QQmlListPropertyINS_10QParameterEEPS4_@Qt_5 5.7.1~20161122
 _ZN10Qt3DRender6Render5Quick16Quick3DTechnique15parametersCountEP16QQmlListPropertyINS_10QParameterEE@Qt_5 5.7.1~20161122
 _ZN10Qt3DRender6Render5Quick16Quick3DTechnique15renderPassCountEP16QQmlListPropertyINS_11QRenderPassEE@Qt_5 5.7.1~20161122
 _ZN10Qt3DRender6Render5Quick16Quick3DTechnique16appendRenderPassEP16QQmlListPropertyINS_11QRenderPassEEPS4_@Qt_5 5.7.1~20161122
 _ZN10Qt3DRender6Render5Quick16Quick3DTechnique16staticMetaObjectE@Qt_5 5.7.1~20161122
 _ZN10Qt3DRender6Render5Quick16Quick3DTechnique17clearRenderPassesEP16QQmlListPropertyINS_11QRenderPassEE@Qt_5 5.7.1~20161122
 _ZN10Qt3DRender6Render5Quick16Quick3DTechnique18clearFilterKeyListEP16QQmlListPropertyINS_10QFilterKeyEE@Qt_5 5.7.1~20161122
 _ZN10Qt3DRender6Render5Quick16Quick3DTechnique18clearParameterListEP16QQmlListPropertyINS_10QParameterEE@Qt_5 5.7.1~20161122
 _ZN10Qt3DRender6Render5Quick16Quick3DTechniqueC1EP7QObject@Qt_5 5.7.1~20161122
 _ZN10Qt3DRender6Render5Quick16Quick3DTechniqueC2EP7QObject@Qt_5 5.7.1~20161122
 _ZN10Qt3DRender6Render5Quick17Quick3DRenderPass11filterKeyAtEP16QQmlListPropertyINS_10QFilterKeyEEi@Qt_5 5.7.1~20161122
 _ZN10Qt3DRender6Render5Quick17Quick3DRenderPass11parameterAtEP16QQmlListPropertyINS_10QParameterEEi@Qt_5 5.7.1~20161122
 _ZN10Qt3DRender6Render5Quick17Quick3DRenderPass11qt_metacallEN11QMetaObject4CallEiPPv@Qt_5 5.7.1~20161122
 _ZN10Qt3DRender6Render5Quick17Quick3DRenderPass11qt_metacastEPKc@Qt_5 5.7.1~20161122
 _ZN10Qt3DRender6Render5Quick17Quick3DRenderPass13filterKeyListEv@Qt_5 5.7.1~20161122
 _ZN10Qt3DRender6Render5Quick17Quick3DRenderPass13parameterListEv@Qt_5 5.7.1~20161122
 _ZN10Qt3DRender6Render5Quick17Quick3DRenderPass13renderStateAtEP16QQmlListPropertyINS_12QRenderStateEEi@Qt_5 5.7.1~20161122
 _ZN10Qt3DRender6Render5Quick17Quick3DRenderPass14clearFilterKeyEP16QQmlListPropertyINS_10QFilterKeyEE@Qt_5 5.7.1~20161122
 _ZN10Qt3DRender6Render5Quick17Quick3DRenderPass15appendFilterKeyEP16QQmlListPropertyINS_10QFilterKeyEEPS4_@Qt_5 5.7.1~20161122
 _ZN10Qt3DRender6Render5Quick17Quick3DRenderPass15appendParameterEP16QQmlListPropertyINS_10QParameterEEPS4_@Qt_5 5.7.1~20161122
 _ZN10Qt3DRender6Render5Quick17Quick3DRenderPass15filterKeysCountEP16QQmlListPropertyINS_10QFilterKeyEE@Qt_5 5.7.1~20161122
 _ZN10Qt3DRender6Render5Quick17Quick3DRenderPass15parametersCountEP16QQmlListPropertyINS_10QParameterEE@Qt_5 5.7.1~20161122
 _ZN10Qt3DRender6Render5Quick17Quick3DRenderPass15renderStateListEv@Qt_5 5.7.1~20161122
 _ZN10Qt3DRender6Render5Quick17Quick3DRenderPass16renderStateCountEP16QQmlListPropertyINS_12QRenderStateEE@Qt_5 5.7.1~20161122
 _ZN10Qt3DRender6Render5Quick17Quick3DRenderPass16staticMetaObjectE@Qt_5 5.7.1~20161122
 _ZN10Qt3DRender6Render5Quick17Quick3DRenderPass17appendRenderStateEP16QQmlListPropertyINS_12QRenderStateEEPS4_@Qt_5 5.7.1~20161122
 _ZN10Qt3DRender6Render5Quick17Quick3DRenderPass17clearRenderStatesEP16QQmlListPropertyINS_12QRenderStateEE@Qt_5 5.7.1~20161122
 _ZN10Qt3DRender6Render5Quick17Quick3DRenderPass18clearParameterListEP16QQmlListPropertyINS_10QParameterEE@Qt_5 5.7.1~20161122
 _ZN10Qt3DRender6Render5Quick17Quick3DRenderPassC1EP7QObject@Qt_5 5.7.1~20161122
 _ZN10Qt3DRender6Render5Quick17Quick3DRenderPassC2EP7QObject@Qt_5 5.7.1~20161122
 _ZN10Qt3DRender6Render5Quick17Quick3DShaderData11qt_metacallEN11QMetaObject4CallEiPPv@Qt_5 5.7.1~20161122
 _ZN10Qt3DRender6Render5Quick17Quick3DShaderData11qt_metacastEPKc@Qt_5 5.7.1~20161122
 _ZN10Qt3DRender6Render5Quick17Quick3DShaderData16staticMetaObjectE@Qt_5 5.7.1~20161122
 _ZN10Qt3DRender6Render5Quick17Quick3DShaderDataC1EPN8Qt3DCore5QNodeE@Qt_5 5.7.1~20161122
 _ZN10Qt3DRender6Render5Quick17Quick3DShaderDataC2EPN8Qt3DCore5QNodeE@Qt_5 5.7.1~20161122
 _ZN10Qt3DRender6Render5Quick18Quick3DLayerFilter10layerCountEP16QQmlListPropertyINS_6QLayerEE@Qt_5 5.7.1~20161122
 _ZN10Qt3DRender6Render5Quick18Quick3DLayerFilter11appendLayerEP16QQmlListPropertyINS_6QLayerEEPS4_@Qt_5 5.7.1~20161122
 _ZN10Qt3DRender6Render5Quick18Quick3DLayerFilter11clearLayersEP16QQmlListPropertyINS_6QLayerEE@Qt_5 5.7.1~20161122
 _ZN10Qt3DRender6Render5Quick18Quick3DLayerFilter11qt_metacallEN11QMetaObject4CallEiPPv@Qt_5 5.7.1~20161122
 _ZN10Qt3DRender6Render5Quick18Quick3DLayerFilter11qt_metacastEPKc@Qt_5 5.7.1~20161122
 _ZN10Qt3DRender6Render5Quick18Quick3DLayerFilter16staticMetaObjectE@Qt_5 5.7.1~20161122
 _ZN10Qt3DRender6Render5Quick18Quick3DLayerFilter7layerAtEP16QQmlListPropertyINS_6QLayerEEi@Qt_5 5.7.1~20161122
 _ZN10Qt3DRender6Render5Quick18Quick3DLayerFilter9qmlLayersEv@Qt_5 5.7.1~20161122
 _ZN10Qt3DRender6Render5Quick18Quick3DLayerFilterC1EP7QObject@Qt_5 5.7.1~20161122
 _ZN10Qt3DRender6Render5Quick18Quick3DLayerFilterC2EP7QObject@Qt_5 5.7.1~20161122
 _ZN10Qt3DRender6Render5Quick20Quick3DMemoryBarrier10setWaitForEi@Qt_5 5.9.0
 _ZN10Qt3DRender6Render5Quick20Quick3DMemoryBarrier11qt_metacallEN11QMetaObject4CallEiPPv@Qt_5 5.9.0
 _ZN10Qt3DRender6Render5Quick20Quick3DMemoryBarrier11qt_metacastEPKc@Qt_5 5.9.0
 _ZN10Qt3DRender6Render5Quick20Quick3DMemoryBarrier16staticMetaObjectE@Qt_5 5.9.0
 _ZN10Qt3DRender6Render5Quick20Quick3DMemoryBarrierC1EP7QObject@Qt_5 5.9.0
 _ZN10Qt3DRender6Render5Quick20Quick3DMemoryBarrierC2EP7QObject@Qt_5 5.9.0
 _ZN10Qt3DRender6Render5Quick20Quick3DMemoryBarrierD0Ev@Qt_5 5.9.0
 _ZN10Qt3DRender6Render5Quick20Quick3DMemoryBarrierD1Ev@Qt_5 5.9.0
 _ZN10Qt3DRender6Render5Quick20Quick3DMemoryBarrierD2Ev@Qt_5 5.9.0
 _ZN10Qt3DRender6Render5Quick22Quick3DShaderDataArray10valueCountEP16QQmlListPropertyINS_11QShaderDataEE@Qt_5 5.7.1~20161122
 _ZN10Qt3DRender6Render5Quick22Quick3DShaderDataArray10valuesListEv@Qt_5 5.7.1~20161122
 _ZN10Qt3DRender6Render5Quick22Quick3DShaderDataArray11appendValueEP16QQmlListPropertyINS_11QShaderDataEEPS4_@Qt_5 5.7.1~20161122
 _ZN10Qt3DRender6Render5Quick22Quick3DShaderDataArray11clearValuesEP16QQmlListPropertyINS_11QShaderDataEE@Qt_5 5.7.1~20161122
 _ZN10Qt3DRender6Render5Quick22Quick3DShaderDataArray11qt_metacallEN11QMetaObject4CallEiPPv@Qt_5 5.7.1~20161122
 _ZN10Qt3DRender6Render5Quick22Quick3DShaderDataArray11qt_metacastEPKc@Qt_5 5.7.1~20161122
 _ZN10Qt3DRender6Render5Quick22Quick3DShaderDataArray16staticMetaObjectE@Qt_5 5.7.1~20161122
 _ZN10Qt3DRender6Render5Quick22Quick3DShaderDataArray7valueAtEP16QQmlListPropertyINS_11QShaderDataEEi@Qt_5 5.7.1~20161122
 _ZN10Qt3DRender6Render5Quick22Quick3DShaderDataArrayC1EPN8Qt3DCore5QNodeE@Qt_5 5.7.1~20161122
 _ZN10Qt3DRender6Render5Quick22Quick3DShaderDataArrayC2EPN8Qt3DCore5QNodeE@Qt_5 5.7.1~20161122
 _ZN10Qt3DRender6Render5Quick22Quick3DTechniqueFilter11parameterAtEP16QQmlListPropertyINS_10QParameterEEi@Qt_5 5.7.1~20161122
 _ZN10Qt3DRender6Render5Quick22Quick3DTechniqueFilter11qt_metacallEN11QMetaObject4CallEiPPv@Qt_5 5.7.1~20161122
 _ZN10Qt3DRender6Render5Quick22Quick3DTechniqueFilter11qt_metacastEPKc@Qt_5 5.7.1~20161122
 _ZN10Qt3DRender6Render5Quick22Quick3DTechniqueFilter13appendRequireEP16QQmlListPropertyINS_10QFilterKeyEEPS4_@Qt_5 5.7.1~20161122
 _ZN10Qt3DRender6Render5Quick22Quick3DTechniqueFilter13clearRequiresEP16QQmlListPropertyINS_10QFilterKeyEE@Qt_5 5.7.1~20161122
 _ZN10Qt3DRender6Render5Quick22Quick3DTechniqueFilter13parameterListEv@Qt_5 5.7.1~20161122
 _ZN10Qt3DRender6Render5Quick22Quick3DTechniqueFilter13requiresCountEP16QQmlListPropertyINS_10QFilterKeyEE@Qt_5 5.7.1~20161122
 _ZN10Qt3DRender6Render5Quick22Quick3DTechniqueFilter15appendParameterEP16QQmlListPropertyINS_10QParameterEEPS4_@Qt_5 5.7.1~20161122
 _ZN10Qt3DRender6Render5Quick22Quick3DTechniqueFilter15parametersCountEP16QQmlListPropertyINS_10QParameterEE@Qt_5 5.7.1~20161122
 _ZN10Qt3DRender6Render5Quick22Quick3DTechniqueFilter16staticMetaObjectE@Qt_5 5.7.1~20161122
 _ZN10Qt3DRender6Render5Quick22Quick3DTechniqueFilter18clearParameterListEP16QQmlListPropertyINS_10QParameterEE@Qt_5 5.7.1~20161122
 _ZN10Qt3DRender6Render5Quick22Quick3DTechniqueFilter9matchListEv@Qt_5 5.7.1~20161122
 _ZN10Qt3DRender6Render5Quick22Quick3DTechniqueFilter9requireAtEP16QQmlListPropertyINS_10QFilterKeyEEi@Qt_5 5.7.1~20161122
 _ZN10Qt3DRender6Render5Quick22Quick3DTechniqueFilterC1EP7QObject@Qt_5 5.7.1~20161122
 _ZN10Qt3DRender6Render5Quick22Quick3DTechniqueFilterC2EP7QObject@Qt_5 5.7.1~20161122
 _ZN10Qt3DRender6Render5Quick23Quick3DRenderPassFilter11includeListEv@Qt_5 5.7.1~20161122
 _ZN10Qt3DRender6Render5Quick23Quick3DRenderPassFilter11parameterAtEP16QQmlListPropertyINS_10QParameterEEi@Qt_5 5.7.1~20161122
 _ZN10Qt3DRender6Render5Quick23Quick3DRenderPassFilter11qt_metacallEN11QMetaObject4CallEiPPv@Qt_5 5.7.1~20161122
 _ZN10Qt3DRender6Render5Quick23Quick3DRenderPassFilter11qt_metacastEPKc@Qt_5 5.7.1~20161122
 _ZN10Qt3DRender6Render5Quick23Quick3DRenderPassFilter13appendIncludeEP16QQmlListPropertyINS_10QFilterKeyEEPS4_@Qt_5 5.7.1~20161122
 _ZN10Qt3DRender6Render5Quick23Quick3DRenderPassFilter13clearIncludesEP16QQmlListPropertyINS_10QFilterKeyEE@Qt_5 5.7.1~20161122
 _ZN10Qt3DRender6Render5Quick23Quick3DRenderPassFilter13includesCountEP16QQmlListPropertyINS_10QFilterKeyEE@Qt_5 5.7.1~20161122
 _ZN10Qt3DRender6Render5Quick23Quick3DRenderPassFilter13parameterListEv@Qt_5 5.7.1~20161122
 _ZN10Qt3DRender6Render5Quick23Quick3DRenderPassFilter15appendParameterEP16QQmlListPropertyINS_10QParameterEEPS4_@Qt_5 5.7.1~20161122
 _ZN10Qt3DRender6Render5Quick23Quick3DRenderPassFilter15parametersCountEP16QQmlListPropertyINS_10QParameterEE@Qt_5 5.7.1~20161122
 _ZN10Qt3DRender6Render5Quick23Quick3DRenderPassFilter16staticMetaObjectE@Qt_5 5.7.1~20161122
 _ZN10Qt3DRender6Render5Quick23Quick3DRenderPassFilter18clearParameterListEP16QQmlListPropertyINS_10QParameterEE@Qt_5 5.7.1~20161122
 _ZN10Qt3DRender6Render5Quick23Quick3DRenderPassFilter9includeAtEP16QQmlListPropertyINS_10QFilterKeyEEi@Qt_5 5.7.1~20161122
 _ZN10Qt3DRender6Render5Quick23Quick3DRenderPassFilterC1EP7QObject@Qt_5 5.7.1~20161122
 _ZN10Qt3DRender6Render5Quick23Quick3DRenderPassFilterC2EP7QObject@Qt_5 5.7.1~20161122
 _ZN10Qt3DRender6Render5Quick23Quick3DTextureExtension11qt_metacallEN11QMetaObject4CallEiPPv@Qt_5 5.7.1~20161122
 _ZN10Qt3DRender6Render5Quick23Quick3DTextureExtension11qt_metacastEPKc@Qt_5 5.7.1~20161122
 _ZN10Qt3DRender6Render5Quick23Quick3DTextureExtension13textureImagesEv@Qt_5 5.7.1~20161122
 _ZN10Qt3DRender6Render5Quick23Quick3DTextureExtension14textureImageAtEP16QQmlListPropertyINS_21QAbstractTextureImageEEi@Qt_5 5.7.1~20161122
 _ZN10Qt3DRender6Render5Quick23Quick3DTextureExtension16staticMetaObjectE@Qt_5 5.7.1~20161122
 _ZN10Qt3DRender6Render5Quick23Quick3DTextureExtension17textureImageCountEP16QQmlListPropertyINS_21QAbstractTextureImageEE@Qt_5 5.7.1~20161122
 _ZN10Qt3DRender6Render5Quick23Quick3DTextureExtension18appendTextureImageEP16QQmlListPropertyINS_21QAbstractTextureImageEEPS4_@Qt_5 5.7.1~20161122
 _ZN10Qt3DRender6Render5Quick23Quick3DTextureExtension21clearTextureImageListEP16QQmlListPropertyINS_21QAbstractTextureImageEE@Qt_5 5.7.1~20161122
 _ZN10Qt3DRender6Render5Quick23Quick3DTextureExtensionC1EP7QObject@Qt_5 5.7.1~20161122
 _ZN10Qt3DRender6Render5Quick23Quick3DTextureExtensionC2EP7QObject@Qt_5 5.7.1~20161122
 _ZN10Qt3DRender6Render5Quick25Quick3DRenderTargetOutput11qt_metacallEN11QMetaObject4CallEiPPv@Qt_5 5.7.1~20161122
 _ZN10Qt3DRender6Render5Quick25Quick3DRenderTargetOutput11qt_metacastEPKc@Qt_5 5.7.1~20161122
 _ZN10Qt3DRender6Render5Quick25Quick3DRenderTargetOutput14qmlAttachmentsEv@Qt_5 5.7.1~20161122
 _ZN10Qt3DRender6Render5Quick25Quick3DRenderTargetOutput16staticMetaObjectE@Qt_5 5.7.1~20161122
 _ZN10Qt3DRender6Render5Quick25Quick3DRenderTargetOutput18renderAttachmentAtEP16QQmlListPropertyINS_19QRenderTargetOutputEEi@Qt_5 5.7.1~20161122
 _ZN10Qt3DRender6Render5Quick25Quick3DRenderTargetOutput21renderAttachmentCountEP16QQmlListPropertyINS_19QRenderTargetOutputEE@Qt_5 5.7.1~20161122
 _ZN10Qt3DRender6Render5Quick25Quick3DRenderTargetOutput22appendRenderAttachmentEP16QQmlListPropertyINS_19QRenderTargetOutputEEPS4_@Qt_5 5.7.1~20161122
 _ZN10Qt3DRender6Render5Quick25Quick3DRenderTargetOutput22clearRenderAttachmentsEP16QQmlListPropertyINS_19QRenderTargetOutputEE@Qt_5 5.7.1~20161122
 _ZN10Qt3DRender6Render5Quick25Quick3DRenderTargetOutputC1EP7QObject@Qt_5 5.7.1~20161122
 _ZN10Qt3DRender6Render5Quick25Quick3DRenderTargetOutputC2EP7QObject@Qt_5 5.7.1~20161122
 _ZN10Qt3DRender6Render5Quick27Quick3DRenderTargetSelector11qt_metacallEN11QMetaObject4CallEiPPv@Qt_5 5.7.1~20161122
 _ZN10Qt3DRender6Render5Quick27Quick3DRenderTargetSelector11qt_metacastEPKc@Qt_5 5.7.1~20161122
 _ZN10Qt3DRender6Render5Quick27Quick3DRenderTargetSelector14setDrawBuffersERK5QListI8QVariantE@Qt_5 5.7.1~20161122
 _ZN10Qt3DRender6Render5Quick27Quick3DRenderTargetSelector16staticMetaObjectE@Qt_5 5.7.1~20161122
 _ZN10Qt3DRender6Render5Quick27Quick3DRenderTargetSelector18drawBuffersChangedEv@Qt_5 5.7.1~20161122
 _ZN10Qt3DRender6Render5Quick27Quick3DRenderTargetSelectorC1EP7QObject@Qt_5 5.7.1~20161122
 _ZN10Qt3DRender6Render5Quick27Quick3DRenderTargetSelectorC2EP7QObject@Qt_5 5.7.1~20161122
 _ZN10Qt3DRender6Render5Quick27Quick3DRenderTargetSelectorD0Ev@Qt_5 5.7.1~20161122
 _ZN10Qt3DRender6Render5Quick27Quick3DRenderTargetSelectorD1Ev@Qt_5 5.7.1~20161122
 _ZN10Qt3DRender6Render5Quick27Quick3DRenderTargetSelectorD2Ev@Qt_5 5.7.1~20161122
 _ZNK10Qt3DRender6Render5Quick12Quick3DScene10metaObjectEv@Qt_5 5.7.1~20161122
 _ZNK10Qt3DRender6Render5Quick13Quick3DBuffer10bufferDataEv@Qt_5 5.7.1~20161122
 _ZNK10Qt3DRender6Render5Quick13Quick3DBuffer10metaObjectEv@Qt_5 5.7.1~20161122
 _ZNK10Qt3DRender6Render5Quick13Quick3DEffect10metaObjectEv@Qt_5 5.7.1~20161122
 _ZNK10Qt3DRender6Render5Quick15Quick3DGeometry10metaObjectEv@Qt_5 5.7.1~20161122
 _ZNK10Qt3DRender6Render5Quick15Quick3DMaterial10metaObjectEv@Qt_5 5.7.1~20161122
 _ZNK10Qt3DRender6Render5Quick15Quick3DStateSet10metaObjectEv@Qt_5 5.7.1~20161122
 _ZNK10Qt3DRender6Render5Quick15Quick3DViewport10metaObjectEv@Qt_5 5.7.1~20161122
 _ZNK10Qt3DRender6Render5Quick16Quick3DParameter10metaObjectEv@Qt_5 5.7.1~20161122
 _ZNK10Qt3DRender6Render5Quick16Quick3DTechnique10metaObjectEv@Qt_5 5.7.1~20161122
 _ZNK10Qt3DRender6Render5Quick17Quick3DRenderPass10metaObjectEv@Qt_5 5.7.1~20161122
 _ZNK10Qt3DRender6Render5Quick17Quick3DShaderData10metaObjectEv@Qt_5 5.7.1~20161122
 _ZNK10Qt3DRender6Render5Quick18Quick3DLayerFilter10metaObjectEv@Qt_5 5.7.1~20161122
 _ZNK10Qt3DRender6Render5Quick20Quick3DMemoryBarrier10metaObjectEv@Qt_5 5.9.0
 _ZNK10Qt3DRender6Render5Quick20Quick3DMemoryBarrier7waitForEv@Qt_5 5.9.0
 _ZNK10Qt3DRender6Render5Quick22Quick3DShaderDataArray10metaObjectEv@Qt_5 5.7.1~20161122
 _ZNK10Qt3DRender6Render5Quick22Quick3DShaderDataArray6valuesEv@Qt_5 5.7.1~20161122
 _ZNK10Qt3DRender6Render5Quick22Quick3DTechniqueFilter10metaObjectEv@Qt_5 5.7.1~20161122
 _ZNK10Qt3DRender6Render5Quick23Quick3DRenderPassFilter10metaObjectEv@Qt_5 5.7.1~20161122
 _ZNK10Qt3DRender6Render5Quick23Quick3DTextureExtension10metaObjectEv@Qt_5 5.7.1~20161122
 _ZNK10Qt3DRender6Render5Quick25Quick3DRenderTargetOutput10metaObjectEv@Qt_5 5.7.1~20161122
 _ZNK10Qt3DRender6Render5Quick27Quick3DRenderTargetSelector10metaObjectEv@Qt_5 5.7.1~20161122
 _ZNK10Qt3DRender6Render5Quick27Quick3DRenderTargetSelector11drawBuffersEv@Qt_5 5.7.1~20161122
 _ZTIN10Qt3DRender6Render5Quick12Quick3DSceneE@Qt_5 5.7.1~20161122
 _ZTIN10Qt3DRender6Render5Quick13Quick3DBufferE@Qt_5 5.7.1~20161122
 _ZTIN10Qt3DRender6Render5Quick13Quick3DEffectE@Qt_5 5.7.1~20161122
 _ZTIN10Qt3DRender6Render5Quick15Quick3DGeometryE@Qt_5 5.7.1~20161122
 _ZTIN10Qt3DRender6Render5Quick15Quick3DMaterialE@Qt_5 5.7.1~20161122
 _ZTIN10Qt3DRender6Render5Quick15Quick3DStateSetE@Qt_5 5.7.1~20161122
 _ZTIN10Qt3DRender6Render5Quick15Quick3DViewportE@Qt_5 5.7.1~20161122
 _ZTIN10Qt3DRender6Render5Quick16Quick3DParameterE@Qt_5 5.7.1~20161122
 _ZTIN10Qt3DRender6Render5Quick16Quick3DTechniqueE@Qt_5 5.7.1~20161122
 _ZTIN10Qt3DRender6Render5Quick17Quick3DRenderPassE@Qt_5 5.7.1~20161122
 _ZTIN10Qt3DRender6Render5Quick17Quick3DShaderDataE@Qt_5 5.7.1~20161122
 _ZTIN10Qt3DRender6Render5Quick18Quick3DLayerFilterE@Qt_5 5.7.1~20161122
 _ZTIN10Qt3DRender6Render5Quick20Quick3DMemoryBarrierE@Qt_5 5.9.0
 _ZTIN10Qt3DRender6Render5Quick22Quick3DShaderDataArrayE@Qt_5 5.7.1~20161122
 _ZTIN10Qt3DRender6Render5Quick22Quick3DTechniqueFilterE@Qt_5 5.7.1~20161122
 _ZTIN10Qt3DRender6Render5Quick23Quick3DRenderPassFilterE@Qt_5 5.7.1~20161122
 _ZTIN10Qt3DRender6Render5Quick23Quick3DTextureExtensionE@Qt_5 5.7.1~20161122
 _ZTIN10Qt3DRender6Render5Quick25Quick3DRenderTargetOutputE@Qt_5 5.7.1~20161122
 _ZTIN10Qt3DRender6Render5Quick27Quick3DRenderTargetSelectorE@Qt_5 5.7.1~20161122
 _ZTSN10Qt3DRender6Render5Quick12Quick3DSceneE@Qt_5 5.7.1~20161122
 _ZTSN10Qt3DRender6Render5Quick13Quick3DBufferE@Qt_5 5.7.1~20161122
 _ZTSN10Qt3DRender6Render5Quick13Quick3DEffectE@Qt_5 5.7.1~20161122
 _ZTSN10Qt3DRender6Render5Quick15Quick3DGeometryE@Qt_5 5.7.1~20161122
 _ZTSN10Qt3DRender6Render5Quick15Quick3DMaterialE@Qt_5 5.7.1~20161122
 _ZTSN10Qt3DRender6Render5Quick15Quick3DStateSetE@Qt_5 5.7.1~20161122
 _ZTSN10Qt3DRender6Render5Quick15Quick3DViewportE@Qt_5 5.7.1~20161122
 _ZTSN10Qt3DRender6Render5Quick16Quick3DParameterE@Qt_5 5.7.1~20161122
 _ZTSN10Qt3DRender6Render5Quick16Quick3DTechniqueE@Qt_5 5.7.1~20161122
 _ZTSN10Qt3DRender6Render5Quick17Quick3DRenderPassE@Qt_5 5.7.1~20161122
 _ZTSN10Qt3DRender6Render5Quick17Quick3DShaderDataE@Qt_5 5.7.1~20161122
 _ZTSN10Qt3DRender6Render5Quick18Quick3DLayerFilterE@Qt_5 5.7.1~20161122
 _ZTSN10Qt3DRender6Render5Quick20Quick3DMemoryBarrierE@Qt_5 5.9.0
 _ZTSN10Qt3DRender6Render5Quick22Quick3DShaderDataArrayE@Qt_5 5.7.1~20161122
 _ZTSN10Qt3DRender6Render5Quick22Quick3DTechniqueFilterE@Qt_5 5.7.1~20161122
 _ZTSN10Qt3DRender6Render5Quick23Quick3DRenderPassFilterE@Qt_5 5.7.1~20161122
 _ZTSN10Qt3DRender6Render5Quick23Quick3DTextureExtensionE@Qt_5 5.7.1~20161122
 _ZTSN10Qt3DRender6Render5Quick25Quick3DRenderTargetOutputE@Qt_5 5.7.1~20161122
 _ZTSN10Qt3DRender6Render5Quick27Quick3DRenderTargetSelectorE@Qt_5 5.7.1~20161122
 _ZTVN10Qt3DRender6Render5Quick12Quick3DSceneE@Qt_5 5.7.1~20161122
 _ZTVN10Qt3DRender6Render5Quick13Quick3DBufferE@Qt_5 5.7.1~20161122
 _ZTVN10Qt3DRender6Render5Quick13Quick3DEffectE@Qt_5 5.7.1~20161122
 _ZTVN10Qt3DRender6Render5Quick15Quick3DGeometryE@Qt_5 5.7.1~20161122
 _ZTVN10Qt3DRender6Render5Quick15Quick3DMaterialE@Qt_5 5.7.1~20161122
 _ZTVN10Qt3DRender6Render5Quick15Quick3DStateSetE@Qt_5 5.7.1~20161122
 _ZTVN10Qt3DRender6Render5Quick15Quick3DViewportE@Qt_5 5.7.1~20161122
 _ZTVN10Qt3DRender6Render5Quick16Quick3DParameterE@Qt_5 5.7.1~20161122
 _ZTVN10Qt3DRender6Render5Quick16Quick3DTechniqueE@Qt_5 5.7.1~20161122
 _ZTVN10Qt3DRender6Render5Quick17Quick3DRenderPassE@Qt_5 5.7.1~20161122
 _ZTVN10Qt3DRender6Render5Quick17Quick3DShaderDataE@Qt_5 5.7.1~20161122
 _ZTVN10Qt3DRender6Render5Quick18Quick3DLayerFilterE@Qt_5 5.7.1~20161122
 _ZTVN10Qt3DRender6Render5Quick20Quick3DMemoryBarrierE@Qt_5 5.9.0
 _ZTVN10Qt3DRender6Render5Quick22Quick3DShaderDataArrayE@Qt_5 5.7.1~20161122
 _ZTVN10Qt3DRender6Render5Quick22Quick3DTechniqueFilterE@Qt_5 5.7.1~20161122
 _ZTVN10Qt3DRender6Render5Quick23Quick3DRenderPassFilterE@Qt_5 5.7.1~20161122
 _ZTVN10Qt3DRender6Render5Quick23Quick3DTextureExtensionE@Qt_5 5.7.1~20161122
 _ZTVN10Qt3DRender6Render5Quick25Quick3DRenderTargetOutputE@Qt_5 5.7.1~20161122
 _ZTVN10Qt3DRender6Render5Quick27Quick3DRenderTargetSelectorE@Qt_5 5.7.1~20161122
