# SymbolsHelper-Confirmed: 5.9.1 amd64
libQt53DQuick.so.5 libqt53dquick5 #MINVER#
 Qt_5.0@Qt_5.0 5.7.1~20161122
 Qt_5.1@Qt_5.1 5.7.1~20161122
 Qt_5.2@Qt_5.2 5.7.1~20161122
 Qt_5.3@Qt_5.3 5.7.1~20161122
 Qt_5.4@Qt_5.4 5.7.1~20161122
 Qt_5.5@Qt_5.5 5.7.1~20161122
 Qt_5.6@Qt_5.6 5.7.1~20161122
 Qt_5.7@Qt_5.7 5.7.1~20161122
 Qt_5.8@Qt_5.8 5.9.0
 Qt_5.9@Qt_5.9 5.9.0
 Qt_5@Qt_5 5.7.1~20161122
 Qt_5_PRIVATE_API@Qt_5_PRIVATE_API 5.7.1~20161122
 _ZN8Qt3DCore5Quick11Quick3DNode10appendDataEP16QQmlListPropertyI7QObjectEPS3_@Qt_5 5.7.1~20161122
 _ZN8Qt3DCore5Quick11Quick3DNode10childCountEP16QQmlListPropertyINS_5QNodeEE@Qt_5 5.7.1~20161122
 _ZN8Qt3DCore5Quick11Quick3DNode10childNodesEv@Qt_5 5.7.1~20161122
 _ZN8Qt3DCore5Quick11Quick3DNode11appendChildEP16QQmlListPropertyINS_5QNodeEEPS3_@Qt_5 5.7.1~20161122
 _ZN8Qt3DCore5Quick11Quick3DNode11qt_metacallEN11QMetaObject4CallEiPPv@Qt_5 5.7.1~20161122
 _ZN8Qt3DCore5Quick11Quick3DNode11qt_metacastEPKc@Qt_5 5.7.1~20161122
 _ZN8Qt3DCore5Quick11Quick3DNode12childRemovedEiP7QObject@Qt_5 5.7.1~20161122
 _ZN8Qt3DCore5Quick11Quick3DNode13childAppendedEiP7QObject@Qt_5 5.7.1~20161122
 _ZN8Qt3DCore5Quick11Quick3DNode13clearChildrenEP16QQmlListPropertyINS_5QNodeEE@Qt_5 5.7.1~20161122
 _ZN8Qt3DCore5Quick11Quick3DNode16staticMetaObjectE@Qt_5 5.7.1~20161122
 _ZN8Qt3DCore5Quick11Quick3DNode4dataEv@Qt_5 5.7.1~20161122
 _ZN8Qt3DCore5Quick11Quick3DNode6dataAtEP16QQmlListPropertyI7QObjectEi@Qt_5 5.7.1~20161122
 _ZN8Qt3DCore5Quick11Quick3DNode7childAtEP16QQmlListPropertyINS_5QNodeEEi@Qt_5 5.7.1~20161122
 _ZN8Qt3DCore5Quick11Quick3DNode9clearDataEP16QQmlListPropertyI7QObjectE@Qt_5 5.7.1~20161122
 _ZN8Qt3DCore5Quick11Quick3DNode9dataCountEP16QQmlListPropertyI7QObjectE@Qt_5 5.7.1~20161122
 _ZN8Qt3DCore5Quick11Quick3DNodeC1EP7QObject@Qt_5 5.7.1~20161122
 _ZN8Qt3DCore5Quick11Quick3DNodeC2EP7QObject@Qt_5 5.7.1~20161122
 _ZN8Qt3DCore5Quick13Quick3DEntity11qt_metacallEN11QMetaObject4CallEiPPv@Qt_5 5.7.1~20161122
 _ZN8Qt3DCore5Quick13Quick3DEntity11qt_metacastEPKc@Qt_5 5.7.1~20161122
 _ZN8Qt3DCore5Quick13Quick3DEntity13componentListEv@Qt_5 5.7.1~20161122
 _ZN8Qt3DCore5Quick13Quick3DEntity14qmlComponentAtEP16QQmlListPropertyINS_10QComponentEEi@Qt_5 5.7.1~20161122
 _ZN8Qt3DCore5Quick13Quick3DEntity16staticMetaObjectE@Qt_5 5.7.1~20161122
 _ZN8Qt3DCore5Quick13Quick3DEntity18qmlAppendComponentEP16QQmlListPropertyINS_10QComponentEEPS3_@Qt_5 5.7.1~20161122
 _ZN8Qt3DCore5Quick13Quick3DEntity18qmlClearComponentsEP16QQmlListPropertyINS_10QComponentEE@Qt_5 5.7.1~20161122
 _ZN8Qt3DCore5Quick13Quick3DEntity18qmlComponentsCountEP16QQmlListPropertyINS_10QComponentEE@Qt_5 5.7.1~20161122
 _ZN8Qt3DCore5Quick13Quick3DEntityC1EP7QObject@Qt_5 5.7.1~20161122
 _ZN8Qt3DCore5Quick13Quick3DEntityC2EP7QObject@Qt_5 5.7.1~20161122
 _ZN8Qt3DCore5Quick13Quick3DNodeV910appendDataEP16QQmlListPropertyI7QObjectEPS3_@Qt_5 5.9.0
 _ZN8Qt3DCore5Quick13Quick3DNodeV910childCountEP16QQmlListPropertyINS_5QNodeEE@Qt_5 5.9.0
 _ZN8Qt3DCore5Quick13Quick3DNodeV910childNodesEv@Qt_5 5.9.0
 _ZN8Qt3DCore5Quick13Quick3DNodeV911appendChildEP16QQmlListPropertyINS_5QNodeEEPS3_@Qt_5 5.9.0
 _ZN8Qt3DCore5Quick13Quick3DNodeV911qt_metacallEN11QMetaObject4CallEiPPv@Qt_5 5.9.0
 _ZN8Qt3DCore5Quick13Quick3DNodeV911qt_metacastEPKc@Qt_5 5.9.0
 _ZN8Qt3DCore5Quick13Quick3DNodeV912childRemovedEiP7QObject@Qt_5 5.9.0
 _ZN8Qt3DCore5Quick13Quick3DNodeV913childAppendedEiP7QObject@Qt_5 5.9.0
 _ZN8Qt3DCore5Quick13Quick3DNodeV913clearChildrenEP16QQmlListPropertyINS_5QNodeEE@Qt_5 5.9.0
 _ZN8Qt3DCore5Quick13Quick3DNodeV916staticMetaObjectE@Qt_5 5.9.0
 _ZN8Qt3DCore5Quick13Quick3DNodeV928setPropertyTrackingOverridesERK8QJSValue@Qt_5 5.9.0
 _ZN8Qt3DCore5Quick13Quick3DNodeV932propertyTrackingOverridesChangedERK8QJSValue@Qt_5 5.9.0
 _ZN8Qt3DCore5Quick13Quick3DNodeV94dataEv@Qt_5 5.9.0
 _ZN8Qt3DCore5Quick13Quick3DNodeV96dataAtEP16QQmlListPropertyI7QObjectEi@Qt_5 5.9.0
 _ZN8Qt3DCore5Quick13Quick3DNodeV97childAtEP16QQmlListPropertyINS_5QNodeEEi@Qt_5 5.9.0
 _ZN8Qt3DCore5Quick13Quick3DNodeV99clearDataEP16QQmlListPropertyI7QObjectE@Qt_5 5.9.0
 _ZN8Qt3DCore5Quick13Quick3DNodeV99dataCountEP16QQmlListPropertyI7QObjectE@Qt_5 5.9.0
 _ZN8Qt3DCore5Quick13Quick3DNodeV9C1EP7QObject@Qt_5 5.9.0
 _ZN8Qt3DCore5Quick13Quick3DNodeV9C2EP7QObject@Qt_5 5.9.0
 _ZN8Qt3DCore5Quick16QQmlAspectEngine11qt_metacallEN11QMetaObject4CallEiPPv@Qt_5 5.7.1~20161122
 _ZN8Qt3DCore5Quick16QQmlAspectEngine11qt_metacastEPKc@Qt_5 5.7.1~20161122
 _ZN8Qt3DCore5Quick16QQmlAspectEngine12sceneCreatedEP7QObject@Qt_5 5.7.1~20161122
 _ZN8Qt3DCore5Quick16QQmlAspectEngine13statusChangedENS1_6StatusE@Qt_5 5.7.1~20161122
 _ZN8Qt3DCore5Quick16QQmlAspectEngine16staticMetaObjectE@Qt_5 5.7.1~20161122
 _ZN8Qt3DCore5Quick16QQmlAspectEngine9setSourceERK4QUrl@Qt_5 5.7.1~20161122
 _ZN8Qt3DCore5Quick16QQmlAspectEngineC1EP7QObject@Qt_5 5.7.1~20161122
 _ZN8Qt3DCore5Quick16QQmlAspectEngineC2EP7QObject@Qt_5 5.7.1~20161122
 _ZN8Qt3DCore5Quick16QQmlAspectEngineD0Ev@Qt_5 5.7.1~20161122
 _ZN8Qt3DCore5Quick16QQmlAspectEngineD1Ev@Qt_5 5.7.1~20161122
 _ZN8Qt3DCore5Quick16QQmlAspectEngineD2Ev@Qt_5 5.7.1~20161122
 _ZN8Qt3DCore5Quick17Quick3DValueTypes18registerValueTypesEv@Qt_5 5.7.1~20161122
 _ZN8Qt3DCore5Quick18Quick3D_initializeEv@Qt_5 5.7.1~20161122
 _ZN8Qt3DCore5Quick19Quick3DEntityLoader11qt_metacallEN11QMetaObject4CallEiPPv@Qt_5 5.7.1~20161122
 _ZN8Qt3DCore5Quick19Quick3DEntityLoader11qt_metacastEPKc@Qt_5 5.7.1~20161122
 _ZN8Qt3DCore5Quick19Quick3DEntityLoader13entityChangedEv@Qt_5 5.7.1~20161122
 _ZN8Qt3DCore5Quick19Quick3DEntityLoader13sourceChangedEv@Qt_5 5.7.1~20161122
 _ZN8Qt3DCore5Quick19Quick3DEntityLoader13statusChangedENS1_6StatusE@Qt_5 5.9.0
 _ZN8Qt3DCore5Quick19Quick3DEntityLoader16staticMetaObjectE@Qt_5 5.7.1~20161122
 _ZN8Qt3DCore5Quick19Quick3DEntityLoader9setSourceERK4QUrl@Qt_5 5.7.1~20161122
 _ZN8Qt3DCore5Quick19Quick3DEntityLoaderC1EPNS_5QNodeE@Qt_5 5.7.1~20161122
 _ZN8Qt3DCore5Quick19Quick3DEntityLoaderC2EPNS_5QNodeE@Qt_5 5.7.1~20161122
 _ZN8Qt3DCore5Quick19Quick3DEntityLoaderD0Ev@Qt_5 5.9.0
 _ZN8Qt3DCore5Quick19Quick3DEntityLoaderD1Ev@Qt_5 5.9.0
 _ZN8Qt3DCore5Quick19Quick3DEntityLoaderD2Ev@Qt_5 5.9.0
 _ZN8Qt3DCore5Quick20QQuaternionAnimation11qt_metacallEN11QMetaObject4CallEiPPv@Qt_5 5.7.1~20161122
 _ZN8Qt3DCore5Quick20QQuaternionAnimation11qt_metacastEPKc@Qt_5 5.7.1~20161122
 _ZN8Qt3DCore5Quick20QQuaternionAnimation11typeChangedENS1_4TypeE@Qt_5 5.7.1~20161122
 _ZN8Qt3DCore5Quick20QQuaternionAnimation14setToXRotationEf@Qt_5 5.7.1~20161122
 _ZN8Qt3DCore5Quick20QQuaternionAnimation14setToYRotationEf@Qt_5 5.7.1~20161122
 _ZN8Qt3DCore5Quick20QQuaternionAnimation14setToZRotationEf@Qt_5 5.7.1~20161122
 _ZN8Qt3DCore5Quick20QQuaternionAnimation16setFromXRotationEf@Qt_5 5.7.1~20161122
 _ZN8Qt3DCore5Quick20QQuaternionAnimation16setFromYRotationEf@Qt_5 5.7.1~20161122
 _ZN8Qt3DCore5Quick20QQuaternionAnimation16setFromZRotationEf@Qt_5 5.7.1~20161122
 _ZN8Qt3DCore5Quick20QQuaternionAnimation16staticMetaObjectE@Qt_5 5.7.1~20161122
 _ZN8Qt3DCore5Quick20QQuaternionAnimation18toXRotationChangedEf@Qt_5 5.7.1~20161122
 _ZN8Qt3DCore5Quick20QQuaternionAnimation18toYRotationChangedEf@Qt_5 5.7.1~20161122
 _ZN8Qt3DCore5Quick20QQuaternionAnimation18toZRotationChangedEf@Qt_5 5.7.1~20161122
 _ZN8Qt3DCore5Quick20QQuaternionAnimation20fromXRotationChangedEf@Qt_5 5.7.1~20161122
 _ZN8Qt3DCore5Quick20QQuaternionAnimation20fromYRotationChangedEf@Qt_5 5.7.1~20161122
 _ZN8Qt3DCore5Quick20QQuaternionAnimation20fromZRotationChangedEf@Qt_5 5.7.1~20161122
 _ZN8Qt3DCore5Quick20QQuaternionAnimation5setToERK11QQuaternion@Qt_5 5.7.1~20161122
 _ZN8Qt3DCore5Quick20QQuaternionAnimation7setFromERK11QQuaternion@Qt_5 5.7.1~20161122
 _ZN8Qt3DCore5Quick20QQuaternionAnimation7setTypeENS1_4TypeE@Qt_5 5.7.1~20161122
 _ZN8Qt3DCore5Quick20QQuaternionAnimationC1EP7QObject@Qt_5 5.7.1~20161122
 _ZN8Qt3DCore5Quick20QQuaternionAnimationC2EP7QObject@Qt_5 5.7.1~20161122
 _ZN8Qt3DCore5Quick20Quick3D_registerTypeEPKcS2_ii@Qt_5 5.7.1~20161122
 _ZN8Qt3DCore5Quick20Quick3D_uninitializeEv@Qt_5 5.9.0
 _ZN8Qt3DCore5Quick21Quick3DColorValueType16staticMetaObjectE@Qt_5 5.7.1~20161122
 _ZN8Qt3DCore5Quick21Quick3DColorValueType4setAEd@Qt_5 5.7.1~20161122
 _ZN8Qt3DCore5Quick21Quick3DColorValueType4setBEd@Qt_5 5.7.1~20161122
 _ZN8Qt3DCore5Quick21Quick3DColorValueType4setGEd@Qt_5 5.7.1~20161122
 _ZN8Qt3DCore5Quick21Quick3DColorValueType4setREd@Qt_5 5.7.1~20161122
 _ZN8Qt3DCore5Quick23Quick3DNodeInstantiator10classBeginEv@Qt_5 5.7.1~20161122
 _ZN8Qt3DCore5Quick23Quick3DNodeInstantiator11objectAddedEiP7QObject@Qt_5 5.7.1~20161122
 _ZN8Qt3DCore5Quick23Quick3DNodeInstantiator11qt_metacallEN11QMetaObject4CallEiPPv@Qt_5 5.7.1~20161122
 _ZN8Qt3DCore5Quick23Quick3DNodeInstantiator11qt_metacastEPKc@Qt_5 5.7.1~20161122
 _ZN8Qt3DCore5Quick23Quick3DNodeInstantiator11setDelegateEP13QQmlComponent@Qt_5 5.7.1~20161122
 _ZN8Qt3DCore5Quick23Quick3DNodeInstantiator12countChangedEv@Qt_5 5.7.1~20161122
 _ZN8Qt3DCore5Quick23Quick3DNodeInstantiator12modelChangedEv@Qt_5 5.7.1~20161122
 _ZN8Qt3DCore5Quick23Quick3DNodeInstantiator13activeChangedEv@Qt_5 5.7.1~20161122
 _ZN8Qt3DCore5Quick23Quick3DNodeInstantiator13objectChangedEv@Qt_5 5.7.1~20161122
 _ZN8Qt3DCore5Quick23Quick3DNodeInstantiator13objectRemovedEiP7QObject@Qt_5 5.7.1~20161122
 _ZN8Qt3DCore5Quick23Quick3DNodeInstantiator15delegateChangedEv@Qt_5 5.7.1~20161122
 _ZN8Qt3DCore5Quick23Quick3DNodeInstantiator15onParentChangedEP7QObject@Qt_5 5.9.1
 _ZN8Qt3DCore5Quick23Quick3DNodeInstantiator16staticMetaObjectE@Qt_5 5.7.1~20161122
 _ZN8Qt3DCore5Quick23Quick3DNodeInstantiator17componentCompleteEv@Qt_5 5.7.1~20161122
 _ZN8Qt3DCore5Quick23Quick3DNodeInstantiator19asynchronousChangedEv@Qt_5 5.7.1~20161122
 _ZN8Qt3DCore5Quick23Quick3DNodeInstantiator8delegateEv@Qt_5 5.7.1~20161122
 _ZN8Qt3DCore5Quick23Quick3DNodeInstantiator8setAsyncEb@Qt_5 5.7.1~20161122
 _ZN8Qt3DCore5Quick23Quick3DNodeInstantiator8setModelERK8QVariant@Qt_5 5.7.1~20161122
 _ZN8Qt3DCore5Quick23Quick3DNodeInstantiator9setActiveEb@Qt_5 5.7.1~20161122
 _ZN8Qt3DCore5Quick23Quick3DNodeInstantiatorC1EPNS_5QNodeE@Qt_5 5.7.1~20161122
 _ZN8Qt3DCore5Quick23Quick3DNodeInstantiatorC2EPNS_5QNodeE@Qt_5 5.7.1~20161122
 _ZN8Qt3DCore5Quick24Quick3DVector2DValueType16staticMetaObjectE@Qt_5 5.7.1~20161122
 _ZN8Qt3DCore5Quick24Quick3DVector2DValueType4setXEd@Qt_5 5.7.1~20161122
 _ZN8Qt3DCore5Quick24Quick3DVector2DValueType4setYEd@Qt_5 5.7.1~20161122
 _ZN8Qt3DCore5Quick24Quick3DVector3DValueType16staticMetaObjectE@Qt_5 5.7.1~20161122
 _ZN8Qt3DCore5Quick24Quick3DVector3DValueType4setXEd@Qt_5 5.7.1~20161122
 _ZN8Qt3DCore5Quick24Quick3DVector3DValueType4setYEd@Qt_5 5.7.1~20161122
 _ZN8Qt3DCore5Quick24Quick3DVector3DValueType4setZEd@Qt_5 5.7.1~20161122
 _ZN8Qt3DCore5Quick24Quick3DVector4DValueType16staticMetaObjectE@Qt_5 5.7.1~20161122
 _ZN8Qt3DCore5Quick24Quick3DVector4DValueType4setWEd@Qt_5 5.7.1~20161122
 _ZN8Qt3DCore5Quick24Quick3DVector4DValueType4setXEd@Qt_5 5.7.1~20161122
 _ZN8Qt3DCore5Quick24Quick3DVector4DValueType4setYEd@Qt_5 5.7.1~20161122
 _ZN8Qt3DCore5Quick24Quick3DVector4DValueType4setZEd@Qt_5 5.7.1~20161122
 _ZN8Qt3DCore5Quick24q_quaternionInterpolatorERK11QQuaternionS3_d@Qt_5 5.7.1~20161122
 _ZN8Qt3DCore5Quick25Quick3DMatrix4x4ValueType16staticMetaObjectE@Qt_5 5.7.1~20161122
 _ZN8Qt3DCore5Quick26Quick3DQuaternionValueType16staticMetaObjectE@Qt_5 5.7.1~20161122
 _ZN8Qt3DCore5Quick26Quick3DQuaternionValueType4setXEd@Qt_5 5.7.1~20161122
 _ZN8Qt3DCore5Quick26Quick3DQuaternionValueType4setYEd@Qt_5 5.7.1~20161122
 _ZN8Qt3DCore5Quick26Quick3DQuaternionValueType4setZEd@Qt_5 5.7.1~20161122
 _ZN8Qt3DCore5Quick26Quick3DQuaternionValueType9setScalarEd@Qt_5 5.7.1~20161122
 _ZNK8Qt3DCore5Quick11Quick3DNode10metaObjectEv@Qt_5 5.7.1~20161122
 _ZNK8Qt3DCore5Quick13Quick3DEntity10metaObjectEv@Qt_5 5.7.1~20161122
 _ZNK8Qt3DCore5Quick13Quick3DNodeV910metaObjectEv@Qt_5 5.9.0
 _ZNK8Qt3DCore5Quick13Quick3DNodeV925propertyTrackingOverridesEv@Qt_5 5.9.0
 _ZNK8Qt3DCore5Quick16QQmlAspectEngine10metaObjectEv@Qt_5 5.7.1~20161122
 _ZNK8Qt3DCore5Quick16QQmlAspectEngine12aspectEngineEv@Qt_5 5.7.1~20161122
 _ZNK8Qt3DCore5Quick16QQmlAspectEngine6statusEv@Qt_5 5.7.1~20161122
 _ZNK8Qt3DCore5Quick16QQmlAspectEngine9qmlEngineEv@Qt_5 5.7.1~20161122
 _ZNK8Qt3DCore5Quick19Quick3DEntityLoader10metaObjectEv@Qt_5 5.7.1~20161122
 _ZNK8Qt3DCore5Quick19Quick3DEntityLoader6entityEv@Qt_5 5.7.1~20161122
 _ZNK8Qt3DCore5Quick19Quick3DEntityLoader6sourceEv@Qt_5 5.7.1~20161122
 _ZNK8Qt3DCore5Quick19Quick3DEntityLoader6statusEv@Qt_5 5.9.0
 _ZNK8Qt3DCore5Quick20QQuaternionAnimation10metaObjectEv@Qt_5 5.7.1~20161122
 _ZNK8Qt3DCore5Quick20QQuaternionAnimation11toXRotationEv@Qt_5 5.7.1~20161122
 _ZNK8Qt3DCore5Quick20QQuaternionAnimation11toYRotationEv@Qt_5 5.7.1~20161122
 _ZNK8Qt3DCore5Quick20QQuaternionAnimation11toZRotationEv@Qt_5 5.7.1~20161122
 _ZNK8Qt3DCore5Quick20QQuaternionAnimation13fromXRotationEv@Qt_5 5.7.1~20161122
 _ZNK8Qt3DCore5Quick20QQuaternionAnimation13fromYRotationEv@Qt_5 5.7.1~20161122
 _ZNK8Qt3DCore5Quick20QQuaternionAnimation13fromZRotationEv@Qt_5 5.7.1~20161122
 _ZNK8Qt3DCore5Quick20QQuaternionAnimation2toEv@Qt_5 5.7.1~20161122
 _ZNK8Qt3DCore5Quick20QQuaternionAnimation4fromEv@Qt_5 5.7.1~20161122
 _ZNK8Qt3DCore5Quick20QQuaternionAnimation4typeEv@Qt_5 5.7.1~20161122
 _ZNK8Qt3DCore5Quick21Quick3DColorValueType1aEv@Qt_5 5.7.1~20161122
 _ZNK8Qt3DCore5Quick21Quick3DColorValueType1bEv@Qt_5 5.7.1~20161122
 _ZNK8Qt3DCore5Quick21Quick3DColorValueType1gEv@Qt_5 5.7.1~20161122
 _ZNK8Qt3DCore5Quick21Quick3DColorValueType1rEv@Qt_5 5.7.1~20161122
 _ZNK8Qt3DCore5Quick21Quick3DColorValueType8toStringEv@Qt_5 5.7.1~20161122
 _ZNK8Qt3DCore5Quick23Quick3DNodeInstantiator10metaObjectEv@Qt_5 5.7.1~20161122
 _ZNK8Qt3DCore5Quick23Quick3DNodeInstantiator5countEv@Qt_5 5.7.1~20161122
 _ZNK8Qt3DCore5Quick23Quick3DNodeInstantiator5modelEv@Qt_5 5.7.1~20161122
 _ZNK8Qt3DCore5Quick23Quick3DNodeInstantiator6objectEv@Qt_5 5.7.1~20161122
 _ZNK8Qt3DCore5Quick23Quick3DNodeInstantiator7isAsyncEv@Qt_5 5.7.1~20161122
 _ZNK8Qt3DCore5Quick23Quick3DNodeInstantiator8isActiveEv@Qt_5 5.7.1~20161122
 _ZNK8Qt3DCore5Quick23Quick3DNodeInstantiator8objectAtEi@Qt_5 5.7.1~20161122
 _ZNK8Qt3DCore5Quick24Quick3DVector2DValueType10dotProductERK9QVector2D@Qt_5 5.7.1~20161122
 _ZNK8Qt3DCore5Quick24Quick3DVector2DValueType10normalizedEv@Qt_5 5.7.1~20161122
 _ZNK8Qt3DCore5Quick24Quick3DVector2DValueType10toVector3dEv@Qt_5 5.7.1~20161122
 _ZNK8Qt3DCore5Quick24Quick3DVector2DValueType10toVector4dEv@Qt_5 5.7.1~20161122
 _ZNK8Qt3DCore5Quick24Quick3DVector2DValueType11fuzzyEqualsERK9QVector2D@Qt_5 5.7.1~20161122
 _ZNK8Qt3DCore5Quick24Quick3DVector2DValueType11fuzzyEqualsERK9QVector2Dd@Qt_5 5.7.1~20161122
 _ZNK8Qt3DCore5Quick24Quick3DVector2DValueType1xEv@Qt_5 5.7.1~20161122
 _ZNK8Qt3DCore5Quick24Quick3DVector2DValueType1yEv@Qt_5 5.7.1~20161122
 _ZNK8Qt3DCore5Quick24Quick3DVector2DValueType4plusERK9QVector2D@Qt_5 5.7.1~20161122
 _ZNK8Qt3DCore5Quick24Quick3DVector2DValueType5minusERK9QVector2D@Qt_5 5.7.1~20161122
 _ZNK8Qt3DCore5Quick24Quick3DVector2DValueType5timesERK9QVector2D@Qt_5 5.7.1~20161122
 _ZNK8Qt3DCore5Quick24Quick3DVector2DValueType5timesEd@Qt_5 5.7.1~20161122
 _ZNK8Qt3DCore5Quick24Quick3DVector2DValueType6lengthEv@Qt_5 5.7.1~20161122
 _ZNK8Qt3DCore5Quick24Quick3DVector2DValueType8toStringEv@Qt_5 5.7.1~20161122
 _ZNK8Qt3DCore5Quick24Quick3DVector3DValueType10dotProductERK9QVector3D@Qt_5 5.7.1~20161122
 _ZNK8Qt3DCore5Quick24Quick3DVector3DValueType10normalizedEv@Qt_5 5.7.1~20161122
 _ZNK8Qt3DCore5Quick24Quick3DVector3DValueType10toVector2dEv@Qt_5 5.7.1~20161122
 _ZNK8Qt3DCore5Quick24Quick3DVector3DValueType10toVector4dEv@Qt_5 5.7.1~20161122
 _ZNK8Qt3DCore5Quick24Quick3DVector3DValueType11fuzzyEqualsERK9QVector3D@Qt_5 5.7.1~20161122
 _ZNK8Qt3DCore5Quick24Quick3DVector3DValueType11fuzzyEqualsERK9QVector3Dd@Qt_5 5.7.1~20161122
 _ZNK8Qt3DCore5Quick24Quick3DVector3DValueType12crossProductERK9QVector3D@Qt_5 5.7.1~20161122
 _ZNK8Qt3DCore5Quick24Quick3DVector3DValueType1xEv@Qt_5 5.7.1~20161122
 _ZNK8Qt3DCore5Quick24Quick3DVector3DValueType1yEv@Qt_5 5.7.1~20161122
 _ZNK8Qt3DCore5Quick24Quick3DVector3DValueType1zEv@Qt_5 5.7.1~20161122
 _ZNK8Qt3DCore5Quick24Quick3DVector3DValueType4plusERK9QVector3D@Qt_5 5.7.1~20161122
 _ZNK8Qt3DCore5Quick24Quick3DVector3DValueType5minusERK9QVector3D@Qt_5 5.7.1~20161122
 _ZNK8Qt3DCore5Quick24Quick3DVector3DValueType5timesERK10QMatrix4x4@Qt_5 5.7.1~20161122
 _ZNK8Qt3DCore5Quick24Quick3DVector3DValueType5timesERK9QVector3D@Qt_5 5.7.1~20161122
 _ZNK8Qt3DCore5Quick24Quick3DVector3DValueType5timesEd@Qt_5 5.7.1~20161122
 _ZNK8Qt3DCore5Quick24Quick3DVector3DValueType6lengthEv@Qt_5 5.7.1~20161122
 _ZNK8Qt3DCore5Quick24Quick3DVector3DValueType8toStringEv@Qt_5 5.7.1~20161122
 _ZNK8Qt3DCore5Quick24Quick3DVector4DValueType10dotProductERK9QVector4D@Qt_5 5.7.1~20161122
 _ZNK8Qt3DCore5Quick24Quick3DVector4DValueType10normalizedEv@Qt_5 5.7.1~20161122
 _ZNK8Qt3DCore5Quick24Quick3DVector4DValueType10toVector2dEv@Qt_5 5.7.1~20161122
 _ZNK8Qt3DCore5Quick24Quick3DVector4DValueType10toVector3dEv@Qt_5 5.7.1~20161122
 _ZNK8Qt3DCore5Quick24Quick3DVector4DValueType11fuzzyEqualsERK9QVector4D@Qt_5 5.7.1~20161122
 _ZNK8Qt3DCore5Quick24Quick3DVector4DValueType11fuzzyEqualsERK9QVector4Dd@Qt_5 5.7.1~20161122
 _ZNK8Qt3DCore5Quick24Quick3DVector4DValueType1wEv@Qt_5 5.7.1~20161122
 _ZNK8Qt3DCore5Quick24Quick3DVector4DValueType1xEv@Qt_5 5.7.1~20161122
 _ZNK8Qt3DCore5Quick24Quick3DVector4DValueType1yEv@Qt_5 5.7.1~20161122
 _ZNK8Qt3DCore5Quick24Quick3DVector4DValueType1zEv@Qt_5 5.7.1~20161122
 _ZNK8Qt3DCore5Quick24Quick3DVector4DValueType4plusERK9QVector4D@Qt_5 5.7.1~20161122
 _ZNK8Qt3DCore5Quick24Quick3DVector4DValueType5minusERK9QVector4D@Qt_5 5.7.1~20161122
 _ZNK8Qt3DCore5Quick24Quick3DVector4DValueType5timesERK10QMatrix4x4@Qt_5 5.7.1~20161122
 _ZNK8Qt3DCore5Quick24Quick3DVector4DValueType5timesERK9QVector4D@Qt_5 5.7.1~20161122
 _ZNK8Qt3DCore5Quick24Quick3DVector4DValueType5timesEd@Qt_5 5.7.1~20161122
 _ZNK8Qt3DCore5Quick24Quick3DVector4DValueType6lengthEv@Qt_5 5.7.1~20161122
 _ZNK8Qt3DCore5Quick24Quick3DVector4DValueType8toStringEv@Qt_5 5.7.1~20161122
 _ZNK8Qt3DCore5Quick25Quick3DMatrix4x4ValueType10transposedEv@Qt_5 5.7.1~20161122
 _ZNK8Qt3DCore5Quick25Quick3DMatrix4x4ValueType11determinantEv@Qt_5 5.7.1~20161122
 _ZNK8Qt3DCore5Quick25Quick3DMatrix4x4ValueType11fuzzyEqualsERK10QMatrix4x4@Qt_5 5.7.1~20161122
 _ZNK8Qt3DCore5Quick25Quick3DMatrix4x4ValueType11fuzzyEqualsERK10QMatrix4x4d@Qt_5 5.7.1~20161122
 _ZNK8Qt3DCore5Quick25Quick3DMatrix4x4ValueType3rowEi@Qt_5 5.7.1~20161122
 _ZNK8Qt3DCore5Quick25Quick3DMatrix4x4ValueType4plusERK10QMatrix4x4@Qt_5 5.7.1~20161122
 _ZNK8Qt3DCore5Quick25Quick3DMatrix4x4ValueType5minusERK10QMatrix4x4@Qt_5 5.7.1~20161122
 _ZNK8Qt3DCore5Quick25Quick3DMatrix4x4ValueType5timesERK10QMatrix4x4@Qt_5 5.7.1~20161122
 _ZNK8Qt3DCore5Quick25Quick3DMatrix4x4ValueType5timesERK9QVector3D@Qt_5 5.7.1~20161122
 _ZNK8Qt3DCore5Quick25Quick3DMatrix4x4ValueType5timesERK9QVector4D@Qt_5 5.7.1~20161122
 _ZNK8Qt3DCore5Quick25Quick3DMatrix4x4ValueType5timesEd@Qt_5 5.7.1~20161122
 _ZNK8Qt3DCore5Quick25Quick3DMatrix4x4ValueType6columnEi@Qt_5 5.7.1~20161122
 _ZNK8Qt3DCore5Quick25Quick3DMatrix4x4ValueType8invertedEv@Qt_5 5.7.1~20161122
 _ZNK8Qt3DCore5Quick25Quick3DMatrix4x4ValueType8toStringEv@Qt_5 5.7.1~20161122
 _ZNK8Qt3DCore5Quick26Quick3DQuaternionValueType1xEv@Qt_5 5.7.1~20161122
 _ZNK8Qt3DCore5Quick26Quick3DQuaternionValueType1yEv@Qt_5 5.7.1~20161122
 _ZNK8Qt3DCore5Quick26Quick3DQuaternionValueType1zEv@Qt_5 5.7.1~20161122
 _ZNK8Qt3DCore5Quick26Quick3DQuaternionValueType6scalarEv@Qt_5 5.7.1~20161122
 _ZNK8Qt3DCore5Quick26Quick3DQuaternionValueType8toStringEv@Qt_5 5.7.1~20161122
 _ZTIN8Qt3DCore5Quick11Quick3DNodeE@Qt_5 5.7.1~20161122
 _ZTIN8Qt3DCore5Quick13Quick3DEntityE@Qt_5 5.7.1~20161122
 _ZTIN8Qt3DCore5Quick13Quick3DNodeV9E@Qt_5 5.9.0
 _ZTIN8Qt3DCore5Quick16QQmlAspectEngineE@Qt_5 5.7.1~20161122
 _ZTIN8Qt3DCore5Quick19Quick3DEntityLoaderE@Qt_5 5.7.1~20161122
 _ZTIN8Qt3DCore5Quick20QQuaternionAnimationE@Qt_5 5.7.1~20161122
 _ZTIN8Qt3DCore5Quick23Quick3DNodeInstantiatorE@Qt_5 5.7.1~20161122
 _ZTSN8Qt3DCore5Quick11Quick3DNodeE@Qt_5 5.7.1~20161122
 _ZTSN8Qt3DCore5Quick13Quick3DEntityE@Qt_5 5.7.1~20161122
 _ZTSN8Qt3DCore5Quick13Quick3DNodeV9E@Qt_5 5.9.0
 _ZTSN8Qt3DCore5Quick16QQmlAspectEngineE@Qt_5 5.7.1~20161122
 _ZTSN8Qt3DCore5Quick19Quick3DEntityLoaderE@Qt_5 5.7.1~20161122
 _ZTSN8Qt3DCore5Quick20QQuaternionAnimationE@Qt_5 5.7.1~20161122
 _ZTSN8Qt3DCore5Quick23Quick3DNodeInstantiatorE@Qt_5 5.7.1~20161122
 _ZTVN8Qt3DCore5Quick11Quick3DNodeE@Qt_5 5.7.1~20161122
 _ZTVN8Qt3DCore5Quick13Quick3DEntityE@Qt_5 5.7.1~20161122
 _ZTVN8Qt3DCore5Quick13Quick3DNodeV9E@Qt_5 5.9.0
 _ZTVN8Qt3DCore5Quick16QQmlAspectEngineE@Qt_5 5.7.1~20161122
 _ZTVN8Qt3DCore5Quick19Quick3DEntityLoaderE@Qt_5 5.7.1~20161122
 _ZTVN8Qt3DCore5Quick20QQuaternionAnimationE@Qt_5 5.7.1~20161122
 _ZTVN8Qt3DCore5Quick23Quick3DNodeInstantiatorE@Qt_5 5.7.1~20161122
 (c++)"non-virtual thunk to Qt3DCore::Quick::Quick3DNodeInstantiator::classBegin()@Qt_5" 5.7.1~20161122
 (c++)"non-virtual thunk to Qt3DCore::Quick::Quick3DNodeInstantiator::componentComplete()@Qt_5" 5.7.1~20161122
