# SymbolsHelper-Confirmed: 5.9.5 amd64 arm64 armhf i386 ppc64el s390x
libQt53DRender.so.5 libqt53drender5 #MINVER#
 Qt_5.0@Qt_5.0 5.7.1~20161122
 Qt_5.1@Qt_5.1 5.7.1~20161122
 Qt_5.2@Qt_5.2 5.7.1~20161122
 Qt_5.3@Qt_5.3 5.7.1~20161122
 Qt_5.4@Qt_5.4 5.7.1~20161122
 Qt_5.5@Qt_5.5 5.7.1~20161122
 Qt_5.6@Qt_5.6 5.7.1~20161122
 Qt_5.7@Qt_5.7 5.7.1~20161122
 Qt_5.8@Qt_5.8 5.9.0
 Qt_5.9@Qt_5.9 5.9.0
 Qt_5@Qt_5 5.7.1~20161122
 Qt_5_PRIVATE_API@Qt_5_PRIVATE_API 5.7.1~20161122
 _ZN10Qt3DRender10QAlphaTest11qt_metacallEN11QMetaObject4CallEiPPv@Qt_5 5.7.1~20161122
 _ZN10Qt3DRender10QAlphaTest11qt_metacastEPKc@Qt_5 5.7.1~20161122
 _ZN10Qt3DRender10QAlphaTest16setAlphaFunctionENS0_13AlphaFunctionE@Qt_5 5.7.1~20161122
 _ZN10Qt3DRender10QAlphaTest16staticMetaObjectE@Qt_5 5.7.1~20161122
 _ZN10Qt3DRender10QAlphaTest17setReferenceValueEf@Qt_5 5.7.1~20161122
 _ZN10Qt3DRender10QAlphaTest20alphaFunctionChangedENS0_13AlphaFunctionE@Qt_5 5.7.1~20161122
 _ZN10Qt3DRender10QAlphaTest21referenceValueChangedEf@Qt_5 5.7.1~20161122
 _ZN10Qt3DRender10QAlphaTestC1EPN8Qt3DCore5QNodeE@Qt_5 5.7.1~20161122
 _ZN10Qt3DRender10QAlphaTestC2EPN8Qt3DCore5QNodeE@Qt_5 5.7.1~20161122
 _ZN10Qt3DRender10QAlphaTestD0Ev@Qt_5 5.7.1~20161122
 _ZN10Qt3DRender10QAlphaTestD1Ev@Qt_5 5.7.1~20161122
 _ZN10Qt3DRender10QAlphaTestD2Ev@Qt_5 5.7.1~20161122
 _ZN10Qt3DRender10QAttribute10setDivisorEj@Qt_5 5.7.1~20161122
 _ZN10Qt3DRender10QAttribute11nameChangedERK7QString@Qt_5 5.7.1~20161122
 _ZN10Qt3DRender10QAttribute11qt_metacallEN11QMetaObject4CallEiPPv@Qt_5 5.7.1~20161122
 _ZN10Qt3DRender10QAttribute11qt_metacastEPKc@Qt_5 5.7.1~20161122
 _ZN10Qt3DRender10QAttribute11setDataSizeEj@Qt_5 5.7.1~20161122
 _ZN10Qt3DRender10QAttribute11setDataTypeENS0_14VertexBaseTypeE@Qt_5 5.7.1~20161122
 _ZN10Qt3DRender10QAttribute12countChangedEj@Qt_5 5.7.1~20161122
 _ZN10Qt3DRender10QAttribute13bufferChangedEPNS_7QBufferE@Qt_5 5.7.1~20161122
 _ZN10Qt3DRender10QAttribute13setByteOffsetEj@Qt_5 5.7.1~20161122
 _ZN10Qt3DRender10QAttribute13setByteStrideEj@Qt_5 5.7.1~20161122
 _ZN10Qt3DRender10QAttribute13setVertexSizeEj@Qt_5 5.9.0
 _ZN10Qt3DRender10QAttribute14divisorChangedEj@Qt_5 5.7.1~20161122
 _ZN10Qt3DRender10QAttribute15dataSizeChangedEj@Qt_5 5.7.1~20161122
 _ZN10Qt3DRender10QAttribute15dataTypeChangedENS0_14VertexBaseTypeE@Qt_5 5.7.1~20161122
 _ZN10Qt3DRender10QAttribute16setAttributeTypeENS0_13AttributeTypeE@Qt_5 5.7.1~20161122
 _ZN10Qt3DRender10QAttribute16staticMetaObjectE@Qt_5 5.7.1~20161122
 _ZN10Qt3DRender10QAttribute17byteOffsetChangedEj@Qt_5 5.7.1~20161122
 _ZN10Qt3DRender10QAttribute17byteStrideChangedEj@Qt_5 5.7.1~20161122
 _ZN10Qt3DRender10QAttribute17setVertexBaseTypeENS0_14VertexBaseTypeE@Qt_5 5.9.0
 _ZN10Qt3DRender10QAttribute17vertexSizeChangedEj@Qt_5 5.9.0
 _ZN10Qt3DRender10QAttribute20attributeTypeChangedENS0_13AttributeTypeE@Qt_5 5.7.1~20161122
 _ZN10Qt3DRender10QAttribute21vertexBaseTypeChangedENS0_14VertexBaseTypeE@Qt_5 5.9.0
 _ZN10Qt3DRender10QAttribute25defaultColorAttributeNameEv@Qt_5 5.7.1~20161122
 _ZN10Qt3DRender10QAttribute26defaultNormalAttributeNameEv@Qt_5 5.7.1~20161122
 _ZN10Qt3DRender10QAttribute27defaultTangentAttributeNameEv@Qt_5 5.7.1~20161122
 _ZN10Qt3DRender10QAttribute28defaultPositionAttributeNameEv@Qt_5 5.7.1~20161122
 _ZN10Qt3DRender10QAttribute37defaultTextureCoordinateAttributeNameEv@Qt_5 5.7.1~20161122
 _ZN10Qt3DRender10QAttribute7setNameERK7QString@Qt_5 5.7.1~20161122
 _ZN10Qt3DRender10QAttribute8setCountEj@Qt_5 5.7.1~20161122
 _ZN10Qt3DRender10QAttribute9setBufferEPNS_7QBufferE@Qt_5 5.7.1~20161122
 _ZN10Qt3DRender10QAttributeC1EPN8Qt3DCore5QNodeE@Qt_5 5.7.1~20161122
 _ZN10Qt3DRender10QAttributeC1EPNS_7QBufferENS0_14VertexBaseTypeEjjjjPN8Qt3DCore5QNodeE@Qt_5 5.7.1~20161122
 _ZN10Qt3DRender10QAttributeC1EPNS_7QBufferERK7QStringNS0_14VertexBaseTypeEjjjjPN8Qt3DCore5QNodeE@Qt_5 5.7.1~20161122
 _ZN10Qt3DRender10QAttributeC2EPN8Qt3DCore5QNodeE@Qt_5 5.7.1~20161122
 _ZN10Qt3DRender10QAttributeC2EPNS_7QBufferENS0_14VertexBaseTypeEjjjjPN8Qt3DCore5QNodeE@Qt_5 5.7.1~20161122
 _ZN10Qt3DRender10QAttributeC2EPNS_7QBufferERK7QStringNS0_14VertexBaseTypeEjjjjPN8Qt3DCore5QNodeE@Qt_5 5.7.1~20161122
 _ZN10Qt3DRender10QAttributeD0Ev@Qt_5 5.7.1~20161122
 _ZN10Qt3DRender10QAttributeD1Ev@Qt_5 5.7.1~20161122
 _ZN10Qt3DRender10QAttributeD2Ev@Qt_5 5.7.1~20161122
 _ZN10Qt3DRender10QClipPlane11qt_metacallEN11QMetaObject4CallEiPPv@Qt_5 5.7.1~20161122
 _ZN10Qt3DRender10QClipPlane11qt_metacastEPKc@Qt_5 5.7.1~20161122
 _ZN10Qt3DRender10QClipPlane11setDistanceEf@Qt_5 5.7.1~20161122
 _ZN10Qt3DRender10QClipPlane13normalChangedE9QVector3D@Qt_5 5.7.1~20161122
 _ZN10Qt3DRender10QClipPlane13setPlaneIndexEi@Qt_5 5.7.1~20161122
 _ZN10Qt3DRender10QClipPlane15distanceChangedEf@Qt_5 5.7.1~20161122
 _ZN10Qt3DRender10QClipPlane16staticMetaObjectE@Qt_5 5.7.1~20161122
 _ZN10Qt3DRender10QClipPlane17planeIndexChangedEi@Qt_5 5.7.1~20161122
 _ZN10Qt3DRender10QClipPlane9setNormalE9QVector3D@Qt_5 5.7.1~20161122
 _ZN10Qt3DRender10QClipPlaneC1EPN8Qt3DCore5QNodeE@Qt_5 5.7.1~20161122
 _ZN10Qt3DRender10QClipPlaneC2EPN8Qt3DCore5QNodeE@Qt_5 5.7.1~20161122
 _ZN10Qt3DRender10QClipPlaneD0Ev@Qt_5 5.7.1~20161122
 _ZN10Qt3DRender10QClipPlaneD1Ev@Qt_5 5.7.1~20161122
 _ZN10Qt3DRender10QClipPlaneD2Ev@Qt_5 5.7.1~20161122
 _ZN10Qt3DRender10QColorMask11qt_metacallEN11QMetaObject4CallEiPPv@Qt_5 5.7.1~20161122
 _ZN10Qt3DRender10QColorMask11qt_metacastEPKc@Qt_5 5.7.1~20161122
 _ZN10Qt3DRender10QColorMask12setRedMaskedEb@Qt_5 5.7.1~20161122
 _ZN10Qt3DRender10QColorMask13setBlueMaskedEb@Qt_5 5.7.1~20161122
 _ZN10Qt3DRender10QColorMask14setAlphaMaskedEb@Qt_5 5.7.1~20161122
 _ZN10Qt3DRender10QColorMask14setGreenMaskedEb@Qt_5 5.7.1~20161122
 _ZN10Qt3DRender10QColorMask16redMaskedChangedEb@Qt_5 5.7.1~20161122
 _ZN10Qt3DRender10QColorMask16staticMetaObjectE@Qt_5 5.7.1~20161122
 _ZN10Qt3DRender10QColorMask17blueMaskedChangedEb@Qt_5 5.7.1~20161122
 _ZN10Qt3DRender10QColorMask18alphaMaskedChangedEb@Qt_5 5.7.1~20161122
 _ZN10Qt3DRender10QColorMask18greenMaskedChangedEb@Qt_5 5.7.1~20161122
 _ZN10Qt3DRender10QColorMaskC1EPN8Qt3DCore5QNodeE@Qt_5 5.7.1~20161122
 _ZN10Qt3DRender10QColorMaskC2EPN8Qt3DCore5QNodeE@Qt_5 5.7.1~20161122
 _ZN10Qt3DRender10QColorMaskD0Ev@Qt_5 5.7.1~20161122
 _ZN10Qt3DRender10QColorMaskD1Ev@Qt_5 5.7.1~20161122
 _ZN10Qt3DRender10QColorMaskD2Ev@Qt_5 5.7.1~20161122
 _ZN10Qt3DRender10QDepthTest11qt_metacallEN11QMetaObject4CallEiPPv@Qt_5 5.7.1~20161122
 _ZN10Qt3DRender10QDepthTest11qt_metacastEPKc@Qt_5 5.7.1~20161122
 _ZN10Qt3DRender10QDepthTest16setDepthFunctionENS0_13DepthFunctionE@Qt_5 5.7.1~20161122
 _ZN10Qt3DRender10QDepthTest16staticMetaObjectE@Qt_5 5.7.1~20161122
 _ZN10Qt3DRender10QDepthTest20depthFunctionChangedENS0_13DepthFunctionE@Qt_5 5.7.1~20161122
 _ZN10Qt3DRender10QDepthTestC1EPN8Qt3DCore5QNodeE@Qt_5 5.7.1~20161122
 _ZN10Qt3DRender10QDepthTestC2EPN8Qt3DCore5QNodeE@Qt_5 5.7.1~20161122
 _ZN10Qt3DRender10QDepthTestD0Ev@Qt_5 5.7.1~20161122
 _ZN10Qt3DRender10QDepthTestD1Ev@Qt_5 5.7.1~20161122
 _ZN10Qt3DRender10QDepthTestD2Ev@Qt_5 5.7.1~20161122
 _ZN10Qt3DRender10QDithering11qt_metacallEN11QMetaObject4CallEiPPv@Qt_5 5.7.1~20161122
 _ZN10Qt3DRender10QDithering11qt_metacastEPKc@Qt_5 5.7.1~20161122
 _ZN10Qt3DRender10QDithering16staticMetaObjectE@Qt_5 5.7.1~20161122
 _ZN10Qt3DRender10QDitheringC1EPN8Qt3DCore5QNodeE@Qt_5 5.7.1~20161122
 _ZN10Qt3DRender10QDitheringC2EPN8Qt3DCore5QNodeE@Qt_5 5.7.1~20161122
 _ZN10Qt3DRender10QDitheringD0Ev@Qt_5 5.7.1~20161122
 _ZN10Qt3DRender10QDitheringD1Ev@Qt_5 5.7.1~20161122
 _ZN10Qt3DRender10QDitheringD2Ev@Qt_5 5.7.1~20161122
 _ZN10Qt3DRender10QFilterKey11nameChangedERK7QString@Qt_5 5.7.1~20161122
 _ZN10Qt3DRender10QFilterKey11qt_metacallEN11QMetaObject4CallEiPPv@Qt_5 5.7.1~20161122
 _ZN10Qt3DRender10QFilterKey11qt_metacastEPKc@Qt_5 5.7.1~20161122
 _ZN10Qt3DRender10QFilterKey12valueChangedERK8QVariant@Qt_5 5.7.1~20161122
 _ZN10Qt3DRender10QFilterKey16staticMetaObjectE@Qt_5 5.7.1~20161122
 _ZN10Qt3DRender10QFilterKey7setNameERK7QString@Qt_5 5.7.1~20161122
 _ZN10Qt3DRender10QFilterKey8setValueERK8QVariant@Qt_5 5.7.1~20161122
 _ZN10Qt3DRender10QFilterKeyC1EPN8Qt3DCore5QNodeE@Qt_5 5.7.1~20161122
 _ZN10Qt3DRender10QFilterKeyC2EPN8Qt3DCore5QNodeE@Qt_5 5.7.1~20161122
 _ZN10Qt3DRender10QFilterKeyD0Ev@Qt_5 5.7.1~20161122
 _ZN10Qt3DRender10QFilterKeyD1Ev@Qt_5 5.7.1~20161122
 _ZN10Qt3DRender10QFilterKeyD2Ev@Qt_5 5.7.1~20161122
 _ZN10Qt3DRender10QFrontFace11qt_metacallEN11QMetaObject4CallEiPPv@Qt_5 5.7.1~20161122
 _ZN10Qt3DRender10QFrontFace11qt_metacastEPKc@Qt_5 5.7.1~20161122
 _ZN10Qt3DRender10QFrontFace12setDirectionENS0_16WindingDirectionE@Qt_5 5.7.1~20161122
 _ZN10Qt3DRender10QFrontFace16directionChangedENS0_16WindingDirectionE@Qt_5 5.7.1~20161122
 _ZN10Qt3DRender10QFrontFace16staticMetaObjectE@Qt_5 5.7.1~20161122
 _ZN10Qt3DRender10QFrontFaceC1EPN8Qt3DCore5QNodeE@Qt_5 5.7.1~20161122
 _ZN10Qt3DRender10QFrontFaceC2EPN8Qt3DCore5QNodeE@Qt_5 5.7.1~20161122
 _ZN10Qt3DRender10QFrontFaceD0Ev@Qt_5 5.7.1~20161122
 _ZN10Qt3DRender10QFrontFaceD1Ev@Qt_5 5.7.1~20161122
 _ZN10Qt3DRender10QFrontFaceD2Ev@Qt_5 5.7.1~20161122
 _ZN10Qt3DRender10QParameter11nameChangedERK7QString@Qt_5 5.7.1~20161122
 _ZN10Qt3DRender10QParameter11qt_metacallEN11QMetaObject4CallEiPPv@Qt_5 5.7.1~20161122
 _ZN10Qt3DRender10QParameter11qt_metacastEPKc@Qt_5 5.7.1~20161122
 _ZN10Qt3DRender10QParameter12valueChangedERK8QVariant@Qt_5 5.7.1~20161122
 _ZN10Qt3DRender10QParameter16staticMetaObjectE@Qt_5 5.7.1~20161122
 _ZN10Qt3DRender10QParameter7setNameERK7QString@Qt_5 5.7.1~20161122
 _ZN10Qt3DRender10QParameter8setValueERK8QVariant@Qt_5 5.7.1~20161122
 _ZN10Qt3DRender10QParameterC1EPN8Qt3DCore5QNodeE@Qt_5 5.7.1~20161122
 _ZN10Qt3DRender10QParameterC1ERK7QStringPNS_16QAbstractTextureEPN8Qt3DCore5QNodeE@Qt_5 5.7.1~20161122
 _ZN10Qt3DRender10QParameterC1ERK7QStringRK8QVariantPN8Qt3DCore5QNodeE@Qt_5 5.7.1~20161122
 _ZN10Qt3DRender10QParameterC1ERNS_17QParameterPrivateEPN8Qt3DCore5QNodeE@Qt_5 5.7.1~20161122
 _ZN10Qt3DRender10QParameterC2EPN8Qt3DCore5QNodeE@Qt_5 5.7.1~20161122
 _ZN10Qt3DRender10QParameterC2ERK7QStringPNS_16QAbstractTextureEPN8Qt3DCore5QNodeE@Qt_5 5.7.1~20161122
 _ZN10Qt3DRender10QParameterC2ERK7QStringRK8QVariantPN8Qt3DCore5QNodeE@Qt_5 5.7.1~20161122
 _ZN10Qt3DRender10QParameterC2ERNS_17QParameterPrivateEPN8Qt3DCore5QNodeE@Qt_5 5.7.1~20161122
 _ZN10Qt3DRender10QParameterD0Ev@Qt_5 5.7.1~20161122
 _ZN10Qt3DRender10QParameterD1Ev@Qt_5 5.7.1~20161122
 _ZN10Qt3DRender10QParameterD2Ev@Qt_5 5.7.1~20161122
 _ZN10Qt3DRender10QPickEvent11qt_metacallEN11QMetaObject4CallEiPPv@Qt_5 5.7.1~20161122
 _ZN10Qt3DRender10QPickEvent11qt_metacastEPKc@Qt_5 5.7.1~20161122
 _ZN10Qt3DRender10QPickEvent11setAcceptedEb@Qt_5 5.7.1~20161122
 _ZN10Qt3DRender10QPickEvent15acceptedChangedEb@Qt_5 5.7.1~20161122
 _ZN10Qt3DRender10QPickEvent16staticMetaObjectE@Qt_5 5.7.1~20161122
 _ZN10Qt3DRender10QPickEventC1ER14QObjectPrivateP7QObject@Qt_5 5.7.1~20161122
 _ZN10Qt3DRender10QPickEventC1ERK7QPointFRK9QVector3DS6_f@Qt_5 5.7.1~20161122
 _ZN10Qt3DRender10QPickEventC1ERK7QPointFRK9QVector3DS6_fNS0_7ButtonsEii@Qt_5 5.9.0
 _ZN10Qt3DRender10QPickEventC1Ev@Qt_5 5.7.1~20161122
 _ZN10Qt3DRender10QPickEventC2ER14QObjectPrivateP7QObject@Qt_5 5.7.1~20161122
 _ZN10Qt3DRender10QPickEventC2ERK7QPointFRK9QVector3DS6_f@Qt_5 5.7.1~20161122
 _ZN10Qt3DRender10QPickEventC2ERK7QPointFRK9QVector3DS6_fNS0_7ButtonsEii@Qt_5 5.9.0
 _ZN10Qt3DRender10QPickEventC2Ev@Qt_5 5.7.1~20161122
 _ZN10Qt3DRender10QPickEventD0Ev@Qt_5 5.7.1~20161122
 _ZN10Qt3DRender10QPickEventD1Ev@Qt_5 5.7.1~20161122
 _ZN10Qt3DRender10QPickEventD2Ev@Qt_5 5.7.1~20161122
 _ZN10Qt3DRender10QPointSize11qt_metacallEN11QMetaObject4CallEiPPv@Qt_5 5.7.1~20161122
 _ZN10Qt3DRender10QPointSize11qt_metacastEPKc@Qt_5 5.7.1~20161122
 _ZN10Qt3DRender10QPointSize11setSizeModeENS0_8SizeModeE@Qt_5 5.7.1~20161122
 _ZN10Qt3DRender10QPointSize12valueChangedEf@Qt_5 5.7.1~20161122
 _ZN10Qt3DRender10QPointSize15sizeModeChangedENS0_8SizeModeE@Qt_5 5.7.1~20161122
 _ZN10Qt3DRender10QPointSize16staticMetaObjectE@Qt_5 5.7.1~20161122
 _ZN10Qt3DRender10QPointSize8setValueEf@Qt_5 5.7.1~20161122
 _ZN10Qt3DRender10QPointSizeC1EPN8Qt3DCore5QNodeE@Qt_5 5.7.1~20161122
 _ZN10Qt3DRender10QPointSizeC2EPN8Qt3DCore5QNodeE@Qt_5 5.7.1~20161122
 _ZN10Qt3DRender10QPointSizeD0Ev@Qt_5 5.7.1~20161122
 _ZN10Qt3DRender10QPointSizeD1Ev@Qt_5 5.7.1~20161122
 _ZN10Qt3DRender10QPointSizeD2Ev@Qt_5 5.7.1~20161122
 _ZN10Qt3DRender10QSpotLight11qt_metacallEN11QMetaObject4CallEiPPv@Qt_5 5.7.1~20161122
 _ZN10Qt3DRender10QSpotLight11qt_metacastEPKc@Qt_5 5.7.1~20161122
 _ZN10Qt3DRender10QSpotLight14setCutOffAngleEf@Qt_5 5.7.1~20161122
 _ZN10Qt3DRender10QSpotLight16staticMetaObjectE@Qt_5 5.7.1~20161122
 _ZN10Qt3DRender10QSpotLight17setLocalDirectionERK9QVector3D@Qt_5 5.7.1~20161122
 _ZN10Qt3DRender10QSpotLight18cutOffAngleChangedEf@Qt_5 5.7.1~20161122
 _ZN10Qt3DRender10QSpotLight20setLinearAttenuationEf@Qt_5 5.7.1~20161122
 _ZN10Qt3DRender10QSpotLight21localDirectionChangedERK9QVector3D@Qt_5 5.7.1~20161122
 _ZN10Qt3DRender10QSpotLight22setConstantAttenuationEf@Qt_5 5.7.1~20161122
 _ZN10Qt3DRender10QSpotLight23setQuadraticAttenuationEf@Qt_5 5.7.1~20161122
 _ZN10Qt3DRender10QSpotLight24linearAttenuationChangedEf@Qt_5 5.7.1~20161122
 _ZN10Qt3DRender10QSpotLight26constantAttenuationChangedEf@Qt_5 5.7.1~20161122
 _ZN10Qt3DRender10QSpotLight27quadraticAttenuationChangedEf@Qt_5 5.7.1~20161122
 _ZN10Qt3DRender10QSpotLightC1EPN8Qt3DCore5QNodeE@Qt_5 5.7.1~20161122
 _ZN10Qt3DRender10QSpotLightC1ERNS_17QSpotLightPrivateEPN8Qt3DCore5QNodeE@Qt_5 5.7.1~20161122
 _ZN10Qt3DRender10QSpotLightC2EPN8Qt3DCore5QNodeE@Qt_5 5.7.1~20161122
 _ZN10Qt3DRender10QSpotLightC2ERNS_17QSpotLightPrivateEPN8Qt3DCore5QNodeE@Qt_5 5.7.1~20161122
 _ZN10Qt3DRender10QSpotLightD0Ev@Qt_5 5.7.1~20161122
 _ZN10Qt3DRender10QSpotLightD1Ev@Qt_5 5.7.1~20161122
 _ZN10Qt3DRender10QSpotLightD2Ev@Qt_5 5.7.1~20161122
 _ZN10Qt3DRender10QTechnique11qt_metacallEN11QMetaObject4CallEiPPv@Qt_5 5.7.1~20161122
 _ZN10Qt3DRender10QTechnique11qt_metacastEPKc@Qt_5 5.7.1~20161122
 _ZN10Qt3DRender10QTechnique12addFilterKeyEPNS_10QFilterKeyE@Qt_5 5.7.1~20161122
 _ZN10Qt3DRender10QTechnique12addParameterEPNS_10QParameterE@Qt_5 5.7.1~20161122
 _ZN10Qt3DRender10QTechnique13addRenderPassEPNS_11QRenderPassE@Qt_5 5.7.1~20161122
 _ZN10Qt3DRender10QTechnique15removeFilterKeyEPNS_10QFilterKeyE@Qt_5 5.7.1~20161122
 _ZN10Qt3DRender10QTechnique15removeParameterEPNS_10QParameterE@Qt_5 5.7.1~20161122
 _ZN10Qt3DRender10QTechnique16removeRenderPassEPNS_11QRenderPassE@Qt_5 5.7.1~20161122
 _ZN10Qt3DRender10QTechnique16staticMetaObjectE@Qt_5 5.7.1~20161122
 _ZN10Qt3DRender10QTechnique17graphicsApiFilterEv@Qt_5 5.7.1~20161122
 _ZN10Qt3DRender10QTechniqueC1EPN8Qt3DCore5QNodeE@Qt_5 5.7.1~20161122
 _ZN10Qt3DRender10QTechniqueC1ERNS_17QTechniquePrivateEPN8Qt3DCore5QNodeE@Qt_5 5.7.1~20161122
 _ZN10Qt3DRender10QTechniqueC2EPN8Qt3DCore5QNodeE@Qt_5 5.7.1~20161122
 _ZN10Qt3DRender10QTechniqueC2ERNS_17QTechniquePrivateEPN8Qt3DCore5QNodeE@Qt_5 5.7.1~20161122
 _ZN10Qt3DRender10QTechniqueD0Ev@Qt_5 5.7.1~20161122
 _ZN10Qt3DRender10QTechniqueD1Ev@Qt_5 5.7.1~20161122
 _ZN10Qt3DRender10QTechniqueD2Ev@Qt_5 5.7.1~20161122
 _ZN10Qt3DRender10QTexture1D11qt_metacallEN11QMetaObject4CallEiPPv@Qt_5 5.7.1~20161122
 _ZN10Qt3DRender10QTexture1D11qt_metacastEPKc@Qt_5 5.7.1~20161122
 _ZN10Qt3DRender10QTexture1D16staticMetaObjectE@Qt_5 5.7.1~20161122
 _ZN10Qt3DRender10QTexture1DC1EPN8Qt3DCore5QNodeE@Qt_5 5.7.1~20161122
 _ZN10Qt3DRender10QTexture1DC2EPN8Qt3DCore5QNodeE@Qt_5 5.7.1~20161122
 _ZN10Qt3DRender10QTexture1DD0Ev@Qt_5 5.7.1~20161122
 _ZN10Qt3DRender10QTexture1DD1Ev@Qt_5 5.7.1~20161122
 _ZN10Qt3DRender10QTexture1DD2Ev@Qt_5 5.7.1~20161122
 _ZN10Qt3DRender10QTexture2D11qt_metacallEN11QMetaObject4CallEiPPv@Qt_5 5.7.1~20161122
 _ZN10Qt3DRender10QTexture2D11qt_metacastEPKc@Qt_5 5.7.1~20161122
 _ZN10Qt3DRender10QTexture2D16staticMetaObjectE@Qt_5 5.7.1~20161122
 _ZN10Qt3DRender10QTexture2DC1EPN8Qt3DCore5QNodeE@Qt_5 5.7.1~20161122
 _ZN10Qt3DRender10QTexture2DC2EPN8Qt3DCore5QNodeE@Qt_5 5.7.1~20161122
 _ZN10Qt3DRender10QTexture2DD0Ev@Qt_5 5.7.1~20161122
 _ZN10Qt3DRender10QTexture2DD1Ev@Qt_5 5.7.1~20161122
 _ZN10Qt3DRender10QTexture2DD2Ev@Qt_5 5.7.1~20161122
 _ZN10Qt3DRender10QTexture3D11qt_metacallEN11QMetaObject4CallEiPPv@Qt_5 5.7.1~20161122
 _ZN10Qt3DRender10QTexture3D11qt_metacastEPKc@Qt_5 5.7.1~20161122
 _ZN10Qt3DRender10QTexture3D16staticMetaObjectE@Qt_5 5.7.1~20161122
 _ZN10Qt3DRender10QTexture3DC1EPN8Qt3DCore5QNodeE@Qt_5 5.7.1~20161122
 _ZN10Qt3DRender10QTexture3DC2EPN8Qt3DCore5QNodeE@Qt_5 5.7.1~20161122
 _ZN10Qt3DRender10QTexture3DD0Ev@Qt_5 5.7.1~20161122
 _ZN10Qt3DRender10QTexture3DD1Ev@Qt_5 5.7.1~20161122
 _ZN10Qt3DRender10QTexture3DD2Ev@Qt_5 5.7.1~20161122
 _ZN10Qt3DRender10QUrlHelper19urlToLocalFileOrQrcERK4QUrl@Qt_5 5.7.1~20161122
 _ZN10Qt3DRender10RayCasting14BoundingSphereC1Ev@Qt_5 5.9.0
 _ZN10Qt3DRender10RayCasting14BoundingSphereC2Ev@Qt_5 5.9.0
 _ZN10Qt3DRender10RayCasting14BoundingSphereD0Ev@Qt_5 5.9.0
 _ZN10Qt3DRender10RayCasting14BoundingSphereD1Ev@Qt_5 5.9.0
 _ZN10Qt3DRender10RayCasting14BoundingSphereD2Ev@Qt_5 5.9.0
 _ZN10Qt3DRender10RayCasting15QBoundingVolumeC1Ev@Qt_5 5.9.0
 _ZN10Qt3DRender10RayCasting15QBoundingVolumeC2Ev@Qt_5 5.9.0
 _ZN10Qt3DRender10RayCasting15QBoundingVolumeD0Ev@Qt_5 5.9.0
 _ZN10Qt3DRender10RayCasting15QBoundingVolumeD1Ev@Qt_5 5.9.0
 _ZN10Qt3DRender10RayCasting15QBoundingVolumeD2Ev@Qt_5 5.9.0
 _ZN10Qt3DRender10RayCasting18QRayCastingService11fetchResultERKi@Qt_5 5.9.0
 _ZN10Qt3DRender10RayCasting18QRayCastingService5queryERKNS0_6QRay3DENS0_30QAbstractCollisionQueryService9QueryModeEPNS0_23QBoundingVolumeProviderE@Qt_5 5.9.0
 _ZN10Qt3DRender10RayCasting18QRayCastingService5queryERKNS0_6QRay3DEPKNS0_15QBoundingVolumeE@Qt_5 5.9.0
 _ZN10Qt3DRender10RayCasting18QRayCastingServiceC1Ev@Qt_5 5.9.0
 _ZN10Qt3DRender10RayCasting18QRayCastingServiceC2Ev@Qt_5 5.9.0
 _ZN10Qt3DRender10RayCasting21QCollisionQueryResult6d_funcEv@Qt_5 5.9.0
 _ZN10Qt3DRender10RayCasting21QCollisionQueryResultC1ERKS1_@Qt_5 5.9.0
 _ZN10Qt3DRender10RayCasting21QCollisionQueryResultC1ERNS0_28QCollisionQueryResultPrivateE@Qt_5 5.9.0
 _ZN10Qt3DRender10RayCasting21QCollisionQueryResultC1Ev@Qt_5 5.9.0
 _ZN10Qt3DRender10RayCasting21QCollisionQueryResultC2ERKS1_@Qt_5 5.9.0
 _ZN10Qt3DRender10RayCasting21QCollisionQueryResultC2ERNS0_28QCollisionQueryResultPrivateE@Qt_5 5.9.0
 _ZN10Qt3DRender10RayCasting21QCollisionQueryResultC2Ev@Qt_5 5.9.0
 _ZN10Qt3DRender10RayCasting21QCollisionQueryResultD1Ev@Qt_5 5.9.0
 _ZN10Qt3DRender10RayCasting21QCollisionQueryResultD2Ev@Qt_5 5.9.0
 _ZN10Qt3DRender10RayCasting21QCollisionQueryResultaSERKS1_@Qt_5 5.9.0
 _ZN10Qt3DRender10RayCasting23QBoundingVolumeProviderD0Ev@Qt_5 5.9.0
 _ZN10Qt3DRender10RayCasting23QBoundingVolumeProviderD1Ev@Qt_5 5.9.0
 _ZN10Qt3DRender10RayCasting23QBoundingVolumeProviderD2Ev@Qt_5 5.9.0
 _ZN10Qt3DRender10RayCasting30QAbstractCollisionQueryService11qt_metacallEN11QMetaObject4CallEiPPv@Qt_5 5.9.0
 _ZN10Qt3DRender10RayCasting30QAbstractCollisionQueryService11qt_metacastEPKc@Qt_5 5.9.0
 _ZN10Qt3DRender10RayCasting30QAbstractCollisionQueryService12addEntityHitERNS0_21QCollisionQueryResultEN8Qt3DCore7QNodeIdERK9QVector3DfS8_@Qt_5 5.9.0
 _ZN10Qt3DRender10RayCasting30QAbstractCollisionQueryService15setResultHandleERNS0_21QCollisionQueryResultERKi@Qt_5 5.9.0
 _ZN10Qt3DRender10RayCasting30QAbstractCollisionQueryService16staticMetaObjectE@Qt_5 5.9.0
 _ZN10Qt3DRender10RayCasting30QAbstractCollisionQueryServiceC1ERK7QString@Qt_5 5.9.0
 _ZN10Qt3DRender10RayCasting30QAbstractCollisionQueryServiceC1ERNS0_37QAbstractCollisionQueryServicePrivateE@Qt_5 5.9.0
 _ZN10Qt3DRender10RayCasting30QAbstractCollisionQueryServiceC2ERK7QString@Qt_5 5.9.0
 _ZN10Qt3DRender10RayCasting30QAbstractCollisionQueryServiceC2ERNS0_37QAbstractCollisionQueryServicePrivateE@Qt_5 5.9.0
 _ZN10Qt3DRender10RayCasting6QRay3D11setDistanceEf@Qt_5 5.9.0
 _ZN10Qt3DRender10RayCasting6QRay3D12setDirectionERK9QVector3D@Qt_5 5.9.0
 _ZN10Qt3DRender10RayCasting6QRay3D9setOriginERK9QVector3D@Qt_5 5.9.0
 _ZN10Qt3DRender10RayCasting6QRay3D9transformERK10QMatrix4x4@Qt_5 5.9.0
 _ZN10Qt3DRender10RayCasting6QRay3DC1ERK9QVector3DS4_f@Qt_5 5.9.0
 _ZN10Qt3DRender10RayCasting6QRay3DC1Ev@Qt_5 5.9.0
 _ZN10Qt3DRender10RayCasting6QRay3DC2ERK9QVector3DS4_f@Qt_5 5.9.0
 _ZN10Qt3DRender10RayCasting6QRay3DC2Ev@Qt_5 5.9.0
 _ZN10Qt3DRender10RayCasting6QRay3DD1Ev@Qt_5 5.9.0
 _ZN10Qt3DRender10RayCasting6QRay3DD2Ev@Qt_5 5.9.0
 _ZN10Qt3DRender10RayCastinglsE6QDebugRKNS0_6QRay3DE@Qt_5 5.9.0
 _ZN10Qt3DRender10RayCastinglsER11QDataStreamRKNS0_6QRay3DE@Qt_5 5.9.0
 _ZN10Qt3DRender10RayCastingrsER11QDataStreamRNS0_6QRay3DE@Qt_5 5.9.0
 _ZN10Qt3DRender11QCameraLens10topChangedEf@Qt_5 5.7.1~20161122
 _ZN10Qt3DRender11QCameraLens11leftChangedEf@Qt_5 5.7.1~20161122
 _ZN10Qt3DRender11QCameraLens11qt_metacallEN11QMetaObject4CallEiPPv@Qt_5 5.7.1~20161122
 _ZN10Qt3DRender11QCameraLens11qt_metacastEPKc@Qt_5 5.7.1~20161122
 _ZN10Qt3DRender11QCameraLens11setExposureEf@Qt_5 5.9.0
 _ZN10Qt3DRender11QCameraLens11setFarPlaneEf@Qt_5 5.7.1~20161122
 _ZN10Qt3DRender11QCameraLens12rightChangedEf@Qt_5 5.7.1~20161122
 _ZN10Qt3DRender11QCameraLens12setNearPlaneEf@Qt_5 5.7.1~20161122
 _ZN10Qt3DRender11QCameraLens13bottomChangedEf@Qt_5 5.7.1~20161122
 _ZN10Qt3DRender11QCameraLens14setAspectRatioEf@Qt_5 5.7.1~20161122
 _ZN10Qt3DRender11QCameraLens14setFieldOfViewEf@Qt_5 5.7.1~20161122
 _ZN10Qt3DRender11QCameraLens15exposureChangedEf@Qt_5 5.9.0
 _ZN10Qt3DRender11QCameraLens15farPlaneChangedEf@Qt_5 5.7.1~20161122
 _ZN10Qt3DRender11QCameraLens16nearPlaneChangedEf@Qt_5 5.7.1~20161122
 _ZN10Qt3DRender11QCameraLens16staticMetaObjectE@Qt_5 5.7.1~20161122
 _ZN10Qt3DRender11QCameraLens17setProjectionTypeENS0_14ProjectionTypeE@Qt_5 5.7.1~20161122
 _ZN10Qt3DRender11QCameraLens18aspectRatioChangedEf@Qt_5 5.7.1~20161122
 _ZN10Qt3DRender11QCameraLens18fieldOfViewChangedEf@Qt_5 5.7.1~20161122
 _ZN10Qt3DRender11QCameraLens19setProjectionMatrixERK10QMatrix4x4@Qt_5 5.7.1~20161122
 _ZN10Qt3DRender11QCameraLens20setFrustumProjectionEffffff@Qt_5 5.7.1~20161122
 _ZN10Qt3DRender11QCameraLens21projectionTypeChangedENS0_14ProjectionTypeE@Qt_5 5.7.1~20161122
 _ZN10Qt3DRender11QCameraLens23projectionMatrixChangedERK10QMatrix4x4@Qt_5 5.7.1~20161122
 _ZN10Qt3DRender11QCameraLens24setPerspectiveProjectionEffff@Qt_5 5.7.1~20161122
 _ZN10Qt3DRender11QCameraLens25setOrthographicProjectionEffffff@Qt_5 5.7.1~20161122
 _ZN10Qt3DRender11QCameraLens6setTopEf@Qt_5 5.7.1~20161122
 _ZN10Qt3DRender11QCameraLens7setLeftEf@Qt_5 5.7.1~20161122
 _ZN10Qt3DRender11QCameraLens8setRightEf@Qt_5 5.7.1~20161122
 _ZN10Qt3DRender11QCameraLens9setBottomEf@Qt_5 5.7.1~20161122
 _ZN10Qt3DRender11QCameraLensC1EPN8Qt3DCore5QNodeE@Qt_5 5.7.1~20161122
 _ZN10Qt3DRender11QCameraLensC1ERNS_18QCameraLensPrivateEPN8Qt3DCore5QNodeE@Qt_5 5.7.1~20161122
 _ZN10Qt3DRender11QCameraLensC2EPN8Qt3DCore5QNodeE@Qt_5 5.7.1~20161122
 _ZN10Qt3DRender11QCameraLensC2ERNS_18QCameraLensPrivateEPN8Qt3DCore5QNodeE@Qt_5 5.7.1~20161122
 _ZN10Qt3DRender11QCameraLensD0Ev@Qt_5 5.7.1~20161122
 _ZN10Qt3DRender11QCameraLensD1Ev@Qt_5 5.7.1~20161122
 _ZN10Qt3DRender11QCameraLensD2Ev@Qt_5 5.7.1~20161122
 _ZN10Qt3DRender11QPointLight11qt_metacallEN11QMetaObject4CallEiPPv@Qt_5 5.7.1~20161122
 _ZN10Qt3DRender11QPointLight11qt_metacastEPKc@Qt_5 5.7.1~20161122
 _ZN10Qt3DRender11QPointLight16staticMetaObjectE@Qt_5 5.7.1~20161122
 _ZN10Qt3DRender11QPointLight20setLinearAttenuationEf@Qt_5 5.7.1~20161122
 _ZN10Qt3DRender11QPointLight22setConstantAttenuationEf@Qt_5 5.7.1~20161122
 _ZN10Qt3DRender11QPointLight23setQuadraticAttenuationEf@Qt_5 5.7.1~20161122
 _ZN10Qt3DRender11QPointLight24linearAttenuationChangedEf@Qt_5 5.7.1~20161122
 _ZN10Qt3DRender11QPointLight26constantAttenuationChangedEf@Qt_5 5.7.1~20161122
 _ZN10Qt3DRender11QPointLight27quadraticAttenuationChangedEf@Qt_5 5.7.1~20161122
 _ZN10Qt3DRender11QPointLightC1EPN8Qt3DCore5QNodeE@Qt_5 5.7.1~20161122
 _ZN10Qt3DRender11QPointLightC1ERNS_18QPointLightPrivateEPN8Qt3DCore5QNodeE@Qt_5 5.7.1~20161122
 _ZN10Qt3DRender11QPointLightC2EPN8Qt3DCore5QNodeE@Qt_5 5.7.1~20161122
 _ZN10Qt3DRender11QPointLightC2ERNS_18QPointLightPrivateEPN8Qt3DCore5QNodeE@Qt_5 5.7.1~20161122
 _ZN10Qt3DRender11QPointLightD0Ev@Qt_5 5.7.1~20161122
 _ZN10Qt3DRender11QPointLightD1Ev@Qt_5 5.7.1~20161122
 _ZN10Qt3DRender11QPointLightD2Ev@Qt_5 5.7.1~20161122
 _ZN10Qt3DRender11QRenderPass11qt_metacallEN11QMetaObject4CallEiPPv@Qt_5 5.7.1~20161122
 _ZN10Qt3DRender11QRenderPass11qt_metacastEPKc@Qt_5 5.7.1~20161122
 _ZN10Qt3DRender11QRenderPass12addFilterKeyEPNS_10QFilterKeyE@Qt_5 5.7.1~20161122
 _ZN10Qt3DRender11QRenderPass12addParameterEPNS_10QParameterE@Qt_5 5.7.1~20161122
 _ZN10Qt3DRender11QRenderPass14addRenderStateEPNS_12QRenderStateE@Qt_5 5.7.1~20161122
 _ZN10Qt3DRender11QRenderPass15removeFilterKeyEPNS_10QFilterKeyE@Qt_5 5.7.1~20161122
 _ZN10Qt3DRender11QRenderPass15removeParameterEPNS_10QParameterE@Qt_5 5.7.1~20161122
 _ZN10Qt3DRender11QRenderPass16setShaderProgramEPNS_14QShaderProgramE@Qt_5 5.7.1~20161122
 _ZN10Qt3DRender11QRenderPass16staticMetaObjectE@Qt_5 5.7.1~20161122
 _ZN10Qt3DRender11QRenderPass17removeRenderStateEPNS_12QRenderStateE@Qt_5 5.7.1~20161122
 _ZN10Qt3DRender11QRenderPass20shaderProgramChangedEPNS_14QShaderProgramE@Qt_5 5.7.1~20161122
 _ZN10Qt3DRender11QRenderPassC1EPN8Qt3DCore5QNodeE@Qt_5 5.7.1~20161122
 _ZN10Qt3DRender11QRenderPassC1ERNS_18QRenderPassPrivateEPN8Qt3DCore5QNodeE@Qt_5 5.7.1~20161122
 _ZN10Qt3DRender11QRenderPassC2EPN8Qt3DCore5QNodeE@Qt_5 5.7.1~20161122
 _ZN10Qt3DRender11QRenderPassC2ERNS_18QRenderPassPrivateEPN8Qt3DCore5QNodeE@Qt_5 5.7.1~20161122
 _ZN10Qt3DRender11QRenderPassD0Ev@Qt_5 5.7.1~20161122
 _ZN10Qt3DRender11QRenderPassD1Ev@Qt_5 5.7.1~20161122
 _ZN10Qt3DRender11QRenderPassD2Ev@Qt_5 5.7.1~20161122
 _ZN10Qt3DRender11QShaderData11qt_metacallEN11QMetaObject4CallEiPPv@Qt_5 5.7.1~20161122
 _ZN10Qt3DRender11QShaderData11qt_metacastEPKc@Qt_5 5.7.1~20161122
 _ZN10Qt3DRender11QShaderData16staticMetaObjectE@Qt_5 5.7.1~20161122
 _ZN10Qt3DRender11QShaderData5eventEP6QEvent@Qt_5 5.7.1~20161122
 _ZN10Qt3DRender11QShaderDataC1EPN8Qt3DCore5QNodeE@Qt_5 5.7.1~20161122
 _ZN10Qt3DRender11QShaderDataC1ERNS_18QShaderDataPrivateEPN8Qt3DCore5QNodeE@Qt_5 5.7.1~20161122
 _ZN10Qt3DRender11QShaderDataC2EPN8Qt3DCore5QNodeE@Qt_5 5.7.1~20161122
 _ZN10Qt3DRender11QShaderDataC2ERNS_18QShaderDataPrivateEPN8Qt3DCore5QNodeE@Qt_5 5.7.1~20161122
 _ZN10Qt3DRender11QShaderDataD0Ev@Qt_5 5.7.1~20161122
 _ZN10Qt3DRender11QShaderDataD1Ev@Qt_5 5.7.1~20161122
 _ZN10Qt3DRender11QShaderDataD2Ev@Qt_5 5.7.1~20161122
 _ZN10Qt3DRender11QSortPolicy11qt_metacallEN11QMetaObject4CallEiPPv@Qt_5 5.7.1~20161122
 _ZN10Qt3DRender11QSortPolicy11qt_metacastEPKc@Qt_5 5.7.1~20161122
 _ZN10Qt3DRender11QSortPolicy12setSortTypesERK7QVectorINS0_8SortTypeEE@Qt_5 5.7.1~20161122
 _ZN10Qt3DRender11QSortPolicy12setSortTypesERK7QVectorIiE@Qt_5 5.7.1~20161122
 _ZN10Qt3DRender11QSortPolicy16sortTypesChangedERK7QVectorINS0_8SortTypeEE@Qt_5 5.7.1~20161122
 _ZN10Qt3DRender11QSortPolicy16sortTypesChangedERK7QVectorIiE@Qt_5 5.7.1~20161122
 _ZN10Qt3DRender11QSortPolicy16staticMetaObjectE@Qt_5 5.7.1~20161122
 _ZN10Qt3DRender11QSortPolicyC1EPN8Qt3DCore5QNodeE@Qt_5 5.7.1~20161122
 _ZN10Qt3DRender11QSortPolicyC1ERNS_18QSortPolicyPrivateEPN8Qt3DCore5QNodeE@Qt_5 5.7.1~20161122
 _ZN10Qt3DRender11QSortPolicyC2EPN8Qt3DCore5QNodeE@Qt_5 5.7.1~20161122
 _ZN10Qt3DRender11QSortPolicyC2ERNS_18QSortPolicyPrivateEPN8Qt3DCore5QNodeE@Qt_5 5.7.1~20161122
 _ZN10Qt3DRender11QSortPolicyD0Ev@Qt_5 5.7.1~20161122
 _ZN10Qt3DRender11QSortPolicyD1Ev@Qt_5 5.7.1~20161122
 _ZN10Qt3DRender11QSortPolicyD2Ev@Qt_5 5.7.1~20161122
 _ZN10Qt3DRender12QLayerFilter11qt_metacallEN11QMetaObject4CallEiPPv@Qt_5 5.7.1~20161122
 _ZN10Qt3DRender12QLayerFilter11qt_metacastEPKc@Qt_5 5.7.1~20161122
 _ZN10Qt3DRender12QLayerFilter11removeLayerEPNS_6QLayerE@Qt_5 5.7.1~20161122
 _ZN10Qt3DRender12QLayerFilter16staticMetaObjectE@Qt_5 5.7.1~20161122
 _ZN10Qt3DRender12QLayerFilter8addLayerEPNS_6QLayerE@Qt_5 5.7.1~20161122
 _ZN10Qt3DRender12QLayerFilterC1EPN8Qt3DCore5QNodeE@Qt_5 5.7.1~20161122
 _ZN10Qt3DRender12QLayerFilterC1ERNS_19QLayerFilterPrivateEPN8Qt3DCore5QNodeE@Qt_5 5.7.1~20161122
 _ZN10Qt3DRender12QLayerFilterC2EPN8Qt3DCore5QNodeE@Qt_5 5.7.1~20161122
 _ZN10Qt3DRender12QLayerFilterC2ERNS_19QLayerFilterPrivateEPN8Qt3DCore5QNodeE@Qt_5 5.7.1~20161122
 _ZN10Qt3DRender12QLayerFilterD0Ev@Qt_5 5.7.1~20161122
 _ZN10Qt3DRender12QLayerFilterD1Ev@Qt_5 5.7.1~20161122
 _ZN10Qt3DRender12QLayerFilterD2Ev@Qt_5 5.7.1~20161122
 _ZN10Qt3DRender12QMeshPrivateC1Ev@Qt_5 5.9.1
 _ZN10Qt3DRender12QMeshPrivateC2Ev@Qt_5 5.9.1
 _ZN10Qt3DRender12QNoDepthMask11qt_metacallEN11QMetaObject4CallEiPPv@Qt_5 5.7.1~20161122
 _ZN10Qt3DRender12QNoDepthMask11qt_metacastEPKc@Qt_5 5.7.1~20161122
 _ZN10Qt3DRender12QNoDepthMask16staticMetaObjectE@Qt_5 5.7.1~20161122
 _ZN10Qt3DRender12QNoDepthMaskC1EPN8Qt3DCore5QNodeE@Qt_5 5.7.1~20161122
 _ZN10Qt3DRender12QNoDepthMaskC2EPN8Qt3DCore5QNodeE@Qt_5 5.7.1~20161122
 _ZN10Qt3DRender12QNoDepthMaskD0Ev@Qt_5 5.7.1~20161122
 _ZN10Qt3DRender12QNoDepthMaskD1Ev@Qt_5 5.7.1~20161122
 _ZN10Qt3DRender12QNoDepthMaskD2Ev@Qt_5 5.7.1~20161122
 _ZN10Qt3DRender12QRenderState11qt_metacallEN11QMetaObject4CallEiPPv@Qt_5 5.7.1~20161122
 _ZN10Qt3DRender12QRenderState11qt_metacastEPKc@Qt_5 5.7.1~20161122
 _ZN10Qt3DRender12QRenderState16staticMetaObjectE@Qt_5 5.7.1~20161122
 _ZN10Qt3DRender12QRenderStateC1ERNS_19QRenderStatePrivateEPN8Qt3DCore5QNodeE@Qt_5 5.7.1~20161122
 _ZN10Qt3DRender12QRenderStateC2ERNS_19QRenderStatePrivateEPN8Qt3DCore5QNodeE@Qt_5 5.7.1~20161122
 _ZN10Qt3DRender12QRenderStateD0Ev@Qt_5 5.7.1~20161122
 _ZN10Qt3DRender12QRenderStateD1Ev@Qt_5 5.7.1~20161122
 _ZN10Qt3DRender12QRenderStateD2Ev@Qt_5 5.7.1~20161122
 _ZN10Qt3DRender12QSceneLoader11qt_metacallEN11QMetaObject4CallEiPPv@Qt_5 5.7.1~20161122
 _ZN10Qt3DRender12QSceneLoader11qt_metacastEPKc@Qt_5 5.7.1~20161122
 _ZN10Qt3DRender12QSceneLoader13sourceChangedERK4QUrl@Qt_5 5.7.1~20161122
 _ZN10Qt3DRender12QSceneLoader13statusChangedENS0_6StatusE@Qt_5 5.7.1~20161122
 _ZN10Qt3DRender12QSceneLoader16sceneChangeEventERK14QSharedPointerIN8Qt3DCore12QSceneChangeEE@Qt_5 5.7.1~20161122
 _ZN10Qt3DRender12QSceneLoader16staticMetaObjectE@Qt_5 5.7.1~20161122
 _ZN10Qt3DRender12QSceneLoader9setSourceERK4QUrl@Qt_5 5.7.1~20161122
 _ZN10Qt3DRender12QSceneLoader9setStatusENS0_6StatusE@Qt_5 5.7.1~20161122
 _ZN10Qt3DRender12QSceneLoaderC1EPN8Qt3DCore5QNodeE@Qt_5 5.7.1~20161122
 _ZN10Qt3DRender12QSceneLoaderC1ERNS_19QSceneLoaderPrivateEPN8Qt3DCore5QNodeE@Qt_5 5.7.1~20161122
 _ZN10Qt3DRender12QSceneLoaderC2EPN8Qt3DCore5QNodeE@Qt_5 5.7.1~20161122
 _ZN10Qt3DRender12QSceneLoaderC2ERNS_19QSceneLoaderPrivateEPN8Qt3DCore5QNodeE@Qt_5 5.7.1~20161122
 _ZN10Qt3DRender12QSceneLoaderD0Ev@Qt_5 5.7.1~20161122
 _ZN10Qt3DRender12QSceneLoaderD1Ev@Qt_5 5.7.1~20161122
 _ZN10Qt3DRender12QSceneLoaderD2Ev@Qt_5 5.7.1~20161122
 _ZN10Qt3DRender12QScissorTest11leftChangedEi@Qt_5 5.7.1~20161122
 _ZN10Qt3DRender12QScissorTest11qt_metacallEN11QMetaObject4CallEiPPv@Qt_5 5.7.1~20161122
 _ZN10Qt3DRender12QScissorTest11qt_metacastEPKc@Qt_5 5.7.1~20161122
 _ZN10Qt3DRender12QScissorTest12widthChangedEi@Qt_5 5.7.1~20161122
 _ZN10Qt3DRender12QScissorTest13bottomChangedEi@Qt_5 5.7.1~20161122
 _ZN10Qt3DRender12QScissorTest13heightChangedEi@Qt_5 5.7.1~20161122
 _ZN10Qt3DRender12QScissorTest16staticMetaObjectE@Qt_5 5.7.1~20161122
 _ZN10Qt3DRender12QScissorTest7setLeftEi@Qt_5 5.7.1~20161122
 _ZN10Qt3DRender12QScissorTest8setWidthEi@Qt_5 5.7.1~20161122
 _ZN10Qt3DRender12QScissorTest9setBottomEi@Qt_5 5.7.1~20161122
 _ZN10Qt3DRender12QScissorTest9setHeightEi@Qt_5 5.7.1~20161122
 _ZN10Qt3DRender12QScissorTestC1EPN8Qt3DCore5QNodeE@Qt_5 5.7.1~20161122
 _ZN10Qt3DRender12QScissorTestC2EPN8Qt3DCore5QNodeE@Qt_5 5.7.1~20161122
 _ZN10Qt3DRender12QScissorTestD0Ev@Qt_5 5.7.1~20161122
 _ZN10Qt3DRender12QScissorTestD1Ev@Qt_5 5.7.1~20161122
 _ZN10Qt3DRender12QScissorTestD2Ev@Qt_5 5.7.1~20161122
 _ZN10Qt3DRender12QStencilMask11qt_metacallEN11QMetaObject4CallEiPPv@Qt_5 5.7.1~20161122
 _ZN10Qt3DRender12QStencilMask11qt_metacastEPKc@Qt_5 5.7.1~20161122
 _ZN10Qt3DRender12QStencilMask16staticMetaObjectE@Qt_5 5.7.1~20161122
 _ZN10Qt3DRender12QStencilMask17setBackOutputMaskEj@Qt_5 5.7.1~20161122
 _ZN10Qt3DRender12QStencilMask18setFrontOutputMaskEj@Qt_5 5.7.1~20161122
 _ZN10Qt3DRender12QStencilMask21backOutputMaskChangedEj@Qt_5 5.7.1~20161122
 _ZN10Qt3DRender12QStencilMask22frontOutputMaskChangedEj@Qt_5 5.7.1~20161122
 _ZN10Qt3DRender12QStencilMaskC1EPN8Qt3DCore5QNodeE@Qt_5 5.7.1~20161122
 _ZN10Qt3DRender12QStencilMaskC2EPN8Qt3DCore5QNodeE@Qt_5 5.7.1~20161122
 _ZN10Qt3DRender12QStencilMaskD0Ev@Qt_5 5.7.1~20161122
 _ZN10Qt3DRender12QStencilMaskD1Ev@Qt_5 5.7.1~20161122
 _ZN10Qt3DRender12QStencilMaskD2Ev@Qt_5 5.7.1~20161122
 _ZN10Qt3DRender12QStencilTest11qt_metacallEN11QMetaObject4CallEiPPv@Qt_5 5.7.1~20161122
 _ZN10Qt3DRender12QStencilTest11qt_metacastEPKc@Qt_5 5.7.1~20161122
 _ZN10Qt3DRender12QStencilTest16staticMetaObjectE@Qt_5 5.7.1~20161122
 _ZN10Qt3DRender12QStencilTestC1EPN8Qt3DCore5QNodeE@Qt_5 5.7.1~20161122
 _ZN10Qt3DRender12QStencilTestC2EPN8Qt3DCore5QNodeE@Qt_5 5.7.1~20161122
 _ZN10Qt3DRender12QStencilTestD0Ev@Qt_5 5.7.1~20161122
 _ZN10Qt3DRender12QStencilTestD1Ev@Qt_5 5.7.1~20161122
 _ZN10Qt3DRender12QStencilTestD2Ev@Qt_5 5.7.1~20161122
 _ZN10Qt3DRender12QTextureData12addImageDataERK14QSharedPointerINS_17QTextureImageDataEE@Qt_5 5.7.1~20161122
 _ZN10Qt3DRender12QTextureData12setWrapModeXENS_16QTextureWrapMode8WrapModeE@Qt_5 5.7.1~20161122
 _ZN10Qt3DRender12QTextureData12setWrapModeYENS_16QTextureWrapMode8WrapModeE@Qt_5 5.7.1~20161122
 _ZN10Qt3DRender12QTextureData12setWrapModeZENS_16QTextureWrapMode8WrapModeE@Qt_5 5.7.1~20161122
 _ZN10Qt3DRender12QTextureData17setComparisonModeENS_16QAbstractTexture14ComparisonModeE@Qt_5 5.7.1~20161122
 _ZN10Qt3DRender12QTextureData20setMaximumAnisotropyEf@Qt_5 5.7.1~20161122
 _ZN10Qt3DRender12QTextureData21setComparisonFunctionENS_16QAbstractTexture18ComparisonFunctionE@Qt_5 5.7.1~20161122
 _ZN10Qt3DRender12QTextureData21setMinificationFilterENS_16QAbstractTexture6FilterE@Qt_5 5.7.1~20161122
 _ZN10Qt3DRender12QTextureData22setMagnificationFilterENS_16QAbstractTexture6FilterE@Qt_5 5.7.1~20161122
 _ZN10Qt3DRender12QTextureData30setAutoMipMapGenerationEnabledEb@Qt_5 5.7.1~20161122
 _ZN10Qt3DRender12QTextureData8setDepthEi@Qt_5 5.7.1~20161122
 _ZN10Qt3DRender12QTextureData8setWidthEi@Qt_5 5.7.1~20161122
 _ZN10Qt3DRender12QTextureData9setFormatENS_16QAbstractTexture13TextureFormatE@Qt_5 5.7.1~20161122
 _ZN10Qt3DRender12QTextureData9setHeightEi@Qt_5 5.7.1~20161122
 _ZN10Qt3DRender12QTextureData9setLayersEi@Qt_5 5.7.1~20161122
 _ZN10Qt3DRender12QTextureData9setTargetENS_16QAbstractTexture6TargetE@Qt_5 5.7.1~20161122
 _ZN10Qt3DRender12QTextureDataC1Ev@Qt_5 5.7.1~20161122
 _ZN10Qt3DRender12QTextureDataC2Ev@Qt_5 5.7.1~20161122
 _ZN10Qt3DRender12QTextureDataD1Ev@Qt_5 5.7.1~20161122
 _ZN10Qt3DRender12QTextureDataD2Ev@Qt_5 5.7.1~20161122
 _ZN10Qt3DRender13QClearBuffers10setBuffersENS0_10BufferTypeE@Qt_5 5.7.1~20161122
 _ZN10Qt3DRender13QClearBuffers11qt_metacallEN11QMetaObject4CallEiPPv@Qt_5 5.7.1~20161122
 _ZN10Qt3DRender13QClearBuffers11qt_metacastEPKc@Qt_5 5.7.1~20161122
 _ZN10Qt3DRender13QClearBuffers13setClearColorERK6QColor@Qt_5 5.7.1~20161122
 _ZN10Qt3DRender13QClearBuffers14buffersChangedENS0_10BufferTypeE@Qt_5 5.7.1~20161122
 _ZN10Qt3DRender13QClearBuffers14setColorBufferEPNS_19QRenderTargetOutputE@Qt_5 5.7.1~20161122
 _ZN10Qt3DRender13QClearBuffers16staticMetaObjectE@Qt_5 5.7.1~20161122
 _ZN10Qt3DRender13QClearBuffers17clearColorChangedERK6QColor@Qt_5 5.7.1~20161122
 _ZN10Qt3DRender13QClearBuffers18colorBufferChangedEPNS_19QRenderTargetOutputE@Qt_5 5.7.1~20161122
 _ZN10Qt3DRender13QClearBuffers18setClearDepthValueEf@Qt_5 5.7.1~20161122
 _ZN10Qt3DRender13QClearBuffers20setClearStencilValueEi@Qt_5 5.7.1~20161122
 _ZN10Qt3DRender13QClearBuffers22clearDepthValueChangedEf@Qt_5 5.7.1~20161122
 _ZN10Qt3DRender13QClearBuffers24clearStencilValueChangedEi@Qt_5 5.7.1~20161122
 _ZN10Qt3DRender13QClearBuffersC1EPN8Qt3DCore5QNodeE@Qt_5 5.7.1~20161122
 _ZN10Qt3DRender13QClearBuffersC1ERNS_20QClearBuffersPrivateEPN8Qt3DCore5QNodeE@Qt_5 5.7.1~20161122
 _ZN10Qt3DRender13QClearBuffersC2EPN8Qt3DCore5QNodeE@Qt_5 5.7.1~20161122
 _ZN10Qt3DRender13QClearBuffersC2ERNS_20QClearBuffersPrivateEPN8Qt3DCore5QNodeE@Qt_5 5.7.1~20161122
 _ZN10Qt3DRender13QClearBuffersD0Ev@Qt_5 5.7.1~20161122
 _ZN10Qt3DRender13QClearBuffersD1Ev@Qt_5 5.7.1~20161122
 _ZN10Qt3DRender13QClearBuffersD2Ev@Qt_5 5.7.1~20161122
 _ZN10Qt3DRender13QLayerPrivateC1Ev@Qt_5 5.9.1
 _ZN10Qt3DRender13QLayerPrivateC2Ev@Qt_5 5.9.1
 _ZN10Qt3DRender13QObjectPicker11qt_metacallEN11QMetaObject4CallEiPPv@Qt_5 5.7.1~20161122
 _ZN10Qt3DRender13QObjectPicker11qt_metacastEPKc@Qt_5 5.7.1~20161122
 _ZN10Qt3DRender13QObjectPicker14pressedChangedEb@Qt_5 5.7.1~20161122
 _ZN10Qt3DRender13QObjectPicker14setDragEnabledEb@Qt_5 5.7.1~20161122
 _ZN10Qt3DRender13QObjectPicker15setHoverEnabledEb@Qt_5 5.7.1~20161122
 _ZN10Qt3DRender13QObjectPicker16sceneChangeEventERK14QSharedPointerIN8Qt3DCore12QSceneChangeEE@Qt_5 5.7.1~20161122
 _ZN10Qt3DRender13QObjectPicker16staticMetaObjectE@Qt_5 5.7.1~20161122
 _ZN10Qt3DRender13QObjectPicker18dragEnabledChangedEb@Qt_5 5.7.1~20161122
 _ZN10Qt3DRender13QObjectPicker19hoverEnabledChangedEb@Qt_5 5.7.1~20161122
 _ZN10Qt3DRender13QObjectPicker20containsMouseChangedEb@Qt_5 5.7.1~20161122
 _ZN10Qt3DRender13QObjectPicker5movedEPNS_10QPickEventE@Qt_5 5.7.1~20161122
 _ZN10Qt3DRender13QObjectPicker6exitedEv@Qt_5 5.7.1~20161122
 _ZN10Qt3DRender13QObjectPicker7clickedEPNS_10QPickEventE@Qt_5 5.7.1~20161122
 _ZN10Qt3DRender13QObjectPicker7enteredEv@Qt_5 5.7.1~20161122
 _ZN10Qt3DRender13QObjectPicker7pressedEPNS_10QPickEventE@Qt_5 5.7.1~20161122
 _ZN10Qt3DRender13QObjectPicker8releasedEPNS_10QPickEventE@Qt_5 5.7.1~20161122
 _ZN10Qt3DRender13QObjectPickerC1EPN8Qt3DCore5QNodeE@Qt_5 5.7.1~20161122
 _ZN10Qt3DRender13QObjectPickerC2EPN8Qt3DCore5QNodeE@Qt_5 5.7.1~20161122
 _ZN10Qt3DRender13QObjectPickerD0Ev@Qt_5 5.7.1~20161122
 _ZN10Qt3DRender13QObjectPickerD1Ev@Qt_5 5.7.1~20161122
 _ZN10Qt3DRender13QObjectPickerD2Ev@Qt_5 5.7.1~20161122
 _ZN10Qt3DRender13QRenderAspect11qt_metacallEN11QMetaObject4CallEiPPv@Qt_5 5.7.1~20161122
 _ZN10Qt3DRender13QRenderAspect11qt_metacastEPKc@Qt_5 5.7.1~20161122
 _ZN10Qt3DRender13QRenderAspect12onRegisteredEv@Qt_5 5.7.1~20161122
 _ZN10Qt3DRender13QRenderAspect13jobsToExecuteEx@Qt_5 5.7.1~20161122
 _ZN10Qt3DRender13QRenderAspect14executeCommandERK11QStringList@Qt_5 5.7.1~20161122
 _ZN10Qt3DRender13QRenderAspect14onUnregisteredEv@Qt_5 5.7.1~20161122
 _ZN10Qt3DRender13QRenderAspect15onEngineStartupEv@Qt_5 5.7.1~20161122
 _ZN10Qt3DRender13QRenderAspect16staticMetaObjectE@Qt_5 5.7.1~20161122
 _ZN10Qt3DRender13QRenderAspectC1ENS0_10RenderTypeEP7QObject@Qt_5 5.7.1~20161122
 _ZN10Qt3DRender13QRenderAspectC1EP7QObject@Qt_5 5.7.1~20161122
 _ZN10Qt3DRender13QRenderAspectC1ERNS_20QRenderAspectPrivateEP7QObject@Qt_5 5.7.1~20161122
 _ZN10Qt3DRender13QRenderAspectC2ENS0_10RenderTypeEP7QObject@Qt_5 5.7.1~20161122
 _ZN10Qt3DRender13QRenderAspectC2EP7QObject@Qt_5 5.7.1~20161122
 _ZN10Qt3DRender13QRenderAspectC2ERNS_20QRenderAspectPrivateEP7QObject@Qt_5 5.7.1~20161122
 _ZN10Qt3DRender13QRenderAspectD0Ev@Qt_5 5.7.1~20161122
 _ZN10Qt3DRender13QRenderAspectD1Ev@Qt_5 5.7.1~20161122
 _ZN10Qt3DRender13QRenderAspectD2Ev@Qt_5 5.7.1~20161122
 _ZN10Qt3DRender13QRenderTarget11qt_metacallEN11QMetaObject4CallEiPPv@Qt_5 5.7.1~20161122
 _ZN10Qt3DRender13QRenderTarget11qt_metacastEPKc@Qt_5 5.7.1~20161122
 _ZN10Qt3DRender13QRenderTarget12removeOutputEPNS_19QRenderTargetOutputE@Qt_5 5.7.1~20161122
 _ZN10Qt3DRender13QRenderTarget16staticMetaObjectE@Qt_5 5.7.1~20161122
 _ZN10Qt3DRender13QRenderTarget9addOutputEPNS_19QRenderTargetOutputE@Qt_5 5.7.1~20161122
 _ZN10Qt3DRender13QRenderTargetC1EPN8Qt3DCore5QNodeE@Qt_5 5.7.1~20161122
 _ZN10Qt3DRender13QRenderTargetC1ERNS_20QRenderTargetPrivateEPN8Qt3DCore5QNodeE@Qt_5 5.7.1~20161122
 _ZN10Qt3DRender13QRenderTargetC2EPN8Qt3DCore5QNodeE@Qt_5 5.7.1~20161122
 _ZN10Qt3DRender13QRenderTargetC2ERNS_20QRenderTargetPrivateEPN8Qt3DCore5QNodeE@Qt_5 5.7.1~20161122
 _ZN10Qt3DRender13QRenderTargetD0Ev@Qt_5 5.7.1~20161122
 _ZN10Qt3DRender13QRenderTargetD1Ev@Qt_5 5.7.1~20161122
 _ZN10Qt3DRender13QRenderTargetD2Ev@Qt_5 5.7.1~20161122
 _ZN10Qt3DRender13QTextureImage11qt_metacallEN11QMetaObject4CallEiPPv@Qt_5 5.7.1~20161122
 _ZN10Qt3DRender13QTextureImage11qt_metacastEPKc@Qt_5 5.7.1~20161122
 _ZN10Qt3DRender13QTextureImage11setMirroredEb@Qt_5 5.9.0
 _ZN10Qt3DRender13QTextureImage13sourceChangedERK4QUrl@Qt_5 5.7.1~20161122
 _ZN10Qt3DRender13QTextureImage13statusChangedENS0_6StatusE@Qt_5 5.7.1~20161122
 _ZN10Qt3DRender13QTextureImage15mirroredChangedEb@Qt_5 5.9.0
 _ZN10Qt3DRender13QTextureImage16sceneChangeEventERK14QSharedPointerIN8Qt3DCore12QSceneChangeEE@Qt_5 5.7.1~20161122
 _ZN10Qt3DRender13QTextureImage16staticMetaObjectE@Qt_5 5.7.1~20161122
 _ZN10Qt3DRender13QTextureImage9setSourceERK4QUrl@Qt_5 5.7.1~20161122
 _ZN10Qt3DRender13QTextureImage9setStatusENS0_6StatusE@Qt_5 5.7.1~20161122
 _ZN10Qt3DRender13QTextureImageC1EPN8Qt3DCore5QNodeE@Qt_5 5.7.1~20161122
 _ZN10Qt3DRender13QTextureImageC2EPN8Qt3DCore5QNodeE@Qt_5 5.7.1~20161122
 _ZN10Qt3DRender13QTextureImageD0Ev@Qt_5 5.7.1~20161122
 _ZN10Qt3DRender13QTextureImageD1Ev@Qt_5 5.7.1~20161122
 _ZN10Qt3DRender13QTextureImageD2Ev@Qt_5 5.7.1~20161122
 _ZN10Qt3DRender14QAbstractLight11qt_metacallEN11QMetaObject4CallEiPPv@Qt_5 5.7.1~20161122
 _ZN10Qt3DRender14QAbstractLight11qt_metacastEPKc@Qt_5 5.7.1~20161122
 _ZN10Qt3DRender14QAbstractLight12colorChangedERK6QColor@Qt_5 5.7.1~20161122
 _ZN10Qt3DRender14QAbstractLight12setIntensityEf@Qt_5 5.7.1~20161122
 _ZN10Qt3DRender14QAbstractLight16intensityChangedEf@Qt_5 5.7.1~20161122
 _ZN10Qt3DRender14QAbstractLight16staticMetaObjectE@Qt_5 5.7.1~20161122
 _ZN10Qt3DRender14QAbstractLight8setColorERK6QColor@Qt_5 5.7.1~20161122
 _ZN10Qt3DRender14QAbstractLightC1ERNS_21QAbstractLightPrivateEPN8Qt3DCore5QNodeE@Qt_5 5.9.1
 _ZN10Qt3DRender14QAbstractLightC2ERNS_21QAbstractLightPrivateEPN8Qt3DCore5QNodeE@Qt_5 5.9.1
 _ZN10Qt3DRender14QAbstractLightD0Ev@Qt_5 5.7.1~20161122
 _ZN10Qt3DRender14QAbstractLightD1Ev@Qt_5 5.7.1~20161122
 _ZN10Qt3DRender14QAbstractLightD2Ev@Qt_5 5.7.1~20161122
 _ZN10Qt3DRender14QAlphaCoverage11qt_metacallEN11QMetaObject4CallEiPPv@Qt_5 5.7.1~20161122
 _ZN10Qt3DRender14QAlphaCoverage11qt_metacastEPKc@Qt_5 5.7.1~20161122
 _ZN10Qt3DRender14QAlphaCoverage16staticMetaObjectE@Qt_5 5.7.1~20161122
 _ZN10Qt3DRender14QAlphaCoverageC1EPN8Qt3DCore5QNodeE@Qt_5 5.7.1~20161122
 _ZN10Qt3DRender14QAlphaCoverageC2EPN8Qt3DCore5QNodeE@Qt_5 5.7.1~20161122
 _ZN10Qt3DRender14QAlphaCoverageD0Ev@Qt_5 5.7.1~20161122
 _ZN10Qt3DRender14QAlphaCoverageD1Ev@Qt_5 5.7.1~20161122
 _ZN10Qt3DRender14QAlphaCoverageD2Ev@Qt_5 5.7.1~20161122
 _ZN10Qt3DRender14QBlendEquation11qt_metacallEN11QMetaObject4CallEiPPv@Qt_5 5.7.1~20161122
 _ZN10Qt3DRender14QBlendEquation11qt_metacastEPKc@Qt_5 5.7.1~20161122
 _ZN10Qt3DRender14QBlendEquation16setBlendFunctionENS0_13BlendFunctionE@Qt_5 5.7.1~20161122
 _ZN10Qt3DRender14QBlendEquation16staticMetaObjectE@Qt_5 5.7.1~20161122
 _ZN10Qt3DRender14QBlendEquation20blendFunctionChangedENS0_13BlendFunctionE@Qt_5 5.7.1~20161122
 _ZN10Qt3DRender14QBlendEquationC1EPN8Qt3DCore5QNodeE@Qt_5 5.7.1~20161122
 _ZN10Qt3DRender14QBlendEquationC2EPN8Qt3DCore5QNodeE@Qt_5 5.7.1~20161122
 _ZN10Qt3DRender14QBlendEquationD0Ev@Qt_5 5.7.1~20161122
 _ZN10Qt3DRender14QBlendEquationD1Ev@Qt_5 5.7.1~20161122
 _ZN10Qt3DRender14QBlendEquationD2Ev@Qt_5 5.7.1~20161122
 _ZN10Qt3DRender14QBufferCapture11qt_metacallEN11QMetaObject4CallEiPPv@Qt_5 5.9.0
 _ZN10Qt3DRender14QBufferCapture11qt_metacastEPKc@Qt_5 5.9.0
 _ZN10Qt3DRender14QBufferCapture16staticMetaObjectE@Qt_5 5.9.0
 _ZN10Qt3DRender14QBufferCaptureC1EPN8Qt3DCore5QNodeE@Qt_5 5.9.0
 _ZN10Qt3DRender14QBufferCaptureC2EPN8Qt3DCore5QNodeE@Qt_5 5.9.0
 _ZN10Qt3DRender14QBufferCaptureD0Ev@Qt_5 5.9.0
 _ZN10Qt3DRender14QBufferCaptureD1Ev@Qt_5 5.9.0
 _ZN10Qt3DRender14QBufferCaptureD2Ev@Qt_5 5.9.0
 _ZN10Qt3DRender14QBufferPrivateC1Ev@Qt_5 5.7.1~20161122
 _ZN10Qt3DRender14QBufferPrivateC2Ev@Qt_5 5.7.1~20161122
 _ZN10Qt3DRender14QCameraPrivate28updateViewMatrixAndTransformEb@Qt_5 5.9.5
 _ZN10Qt3DRender14QCameraPrivateC1Ev@Qt_5 5.9.1
 _ZN10Qt3DRender14QCameraPrivateC2Ev@Qt_5 5.9.1
 _ZN10Qt3DRender14QEffectPrivateC1Ev@Qt_5 5.9.1
 _ZN10Qt3DRender14QEffectPrivateC2Ev@Qt_5 5.9.1
 _ZN10Qt3DRender14QLevelOfDetail11qt_metacallEN11QMetaObject4CallEiPPv@Qt_5 5.9.0
 _ZN10Qt3DRender14QLevelOfDetail11qt_metacastEPKc@Qt_5 5.9.0
 _ZN10Qt3DRender14QLevelOfDetail13cameraChangedEPNS_7QCameraE@Qt_5 5.9.0
 _ZN10Qt3DRender14QLevelOfDetail13setThresholdsERK7QVectorIdE@Qt_5 5.9.0
 _ZN10Qt3DRender14QLevelOfDetail15setCurrentIndexEi@Qt_5 5.9.0
 _ZN10Qt3DRender14QLevelOfDetail16sceneChangeEventERK14QSharedPointerIN8Qt3DCore12QSceneChangeEE@Qt_5 5.9.0
 _ZN10Qt3DRender14QLevelOfDetail16setThresholdTypeENS0_13ThresholdTypeE@Qt_5 5.9.0
 _ZN10Qt3DRender14QLevelOfDetail16staticMetaObjectE@Qt_5 5.9.0
 _ZN10Qt3DRender14QLevelOfDetail17setVolumeOverrideERKNS_28QLevelOfDetailBoundingSphereE@Qt_5 5.9.0
 _ZN10Qt3DRender14QLevelOfDetail17thresholdsChangedERK7QVectorIdE@Qt_5 5.9.0
 _ZN10Qt3DRender14QLevelOfDetail19currentIndexChangedEi@Qt_5 5.9.0
 _ZN10Qt3DRender14QLevelOfDetail20createBoundingSphereERK9QVector3Df@Qt_5 5.9.0
 _ZN10Qt3DRender14QLevelOfDetail20thresholdTypeChangedENS0_13ThresholdTypeE@Qt_5 5.9.0
 _ZN10Qt3DRender14QLevelOfDetail21volumeOverrideChangedERKNS_28QLevelOfDetailBoundingSphereE@Qt_5 5.9.0
 _ZN10Qt3DRender14QLevelOfDetail9setCameraEPNS_7QCameraE@Qt_5 5.9.0
 _ZN10Qt3DRender14QLevelOfDetailC1EPN8Qt3DCore5QNodeE@Qt_5 5.9.0
 _ZN10Qt3DRender14QLevelOfDetailC1ERNS_21QLevelOfDetailPrivateEPN8Qt3DCore5QNodeE@Qt_5 5.9.0
 _ZN10Qt3DRender14QLevelOfDetailC2EPN8Qt3DCore5QNodeE@Qt_5 5.9.0
 _ZN10Qt3DRender14QLevelOfDetailC2ERNS_21QLevelOfDetailPrivateEPN8Qt3DCore5QNodeE@Qt_5 5.9.0
 _ZN10Qt3DRender14QLevelOfDetailD0Ev@Qt_5 5.9.0
 _ZN10Qt3DRender14QLevelOfDetailD1Ev@Qt_5 5.9.0
 _ZN10Qt3DRender14QLevelOfDetailD2Ev@Qt_5 5.9.0
 _ZN10Qt3DRender14QMemoryBarrier11qt_metacallEN11QMetaObject4CallEiPPv@Qt_5 5.9.0
 _ZN10Qt3DRender14QMemoryBarrier11qt_metacastEPKc@Qt_5 5.9.0
 _ZN10Qt3DRender14QMemoryBarrier16staticMetaObjectE@Qt_5 5.9.0
 _ZN10Qt3DRender14QMemoryBarrier17setWaitOperationsE6QFlagsINS0_9OperationEE@Qt_5 5.9.0
 _ZN10Qt3DRender14QMemoryBarrier21waitOperationsChangedE6QFlagsINS0_9OperationEE@Qt_5 5.9.0
 _ZN10Qt3DRender14QMemoryBarrierC1EPN8Qt3DCore5QNodeE@Qt_5 5.9.0
 _ZN10Qt3DRender14QMemoryBarrierC1ERNS_21QMemoryBarrierPrivateEPN8Qt3DCore5QNodeE@Qt_5 5.9.0
 _ZN10Qt3DRender14QMemoryBarrierC2EPN8Qt3DCore5QNodeE@Qt_5 5.9.0
 _ZN10Qt3DRender14QMemoryBarrierC2ERNS_21QMemoryBarrierPrivateEPN8Qt3DCore5QNodeE@Qt_5 5.9.0
 _ZN10Qt3DRender14QMemoryBarrierD0Ev@Qt_5 5.9.0
 _ZN10Qt3DRender14QMemoryBarrierD1Ev@Qt_5 5.9.0
 _ZN10Qt3DRender14QMemoryBarrierD2Ev@Qt_5 5.9.0
 _ZN10Qt3DRender14QPolygonOffset11qt_metacallEN11QMetaObject4CallEiPPv@Qt_5 5.7.1~20161122
 _ZN10Qt3DRender14QPolygonOffset11qt_metacastEPKc@Qt_5 5.7.1~20161122
 _ZN10Qt3DRender14QPolygonOffset13setDepthStepsEf@Qt_5 5.7.1~20161122
 _ZN10Qt3DRender14QPolygonOffset14setScaleFactorEf@Qt_5 5.7.1~20161122
 _ZN10Qt3DRender14QPolygonOffset16staticMetaObjectE@Qt_5 5.7.1~20161122
 _ZN10Qt3DRender14QPolygonOffset17depthStepsChangedEf@Qt_5 5.7.1~20161122
 _ZN10Qt3DRender14QPolygonOffset18scaleFactorChangedEf@Qt_5 5.7.1~20161122
 _ZN10Qt3DRender14QPolygonOffsetC1EPN8Qt3DCore5QNodeE@Qt_5 5.7.1~20161122
 _ZN10Qt3DRender14QPolygonOffsetC2EPN8Qt3DCore5QNodeE@Qt_5 5.7.1~20161122
 _ZN10Qt3DRender14QPolygonOffsetD0Ev@Qt_5 5.7.1~20161122
 _ZN10Qt3DRender14QPolygonOffsetD1Ev@Qt_5 5.7.1~20161122
 _ZN10Qt3DRender14QPolygonOffsetD2Ev@Qt_5 5.7.1~20161122
 _ZN10Qt3DRender14QRenderCapture11qt_metacallEN11QMetaObject4CallEiPPv@Qt_5 5.9.0
 _ZN10Qt3DRender14QRenderCapture11qt_metacastEPKc@Qt_5 5.9.0
 _ZN10Qt3DRender14QRenderCapture14requestCaptureEi@Qt_5 5.9.0
 _ZN10Qt3DRender14QRenderCapture14requestCaptureEv@Qt_5 5.9.0
 _ZN10Qt3DRender14QRenderCapture16sceneChangeEventERK14QSharedPointerIN8Qt3DCore12QSceneChangeEE@Qt_5 5.9.0
 _ZN10Qt3DRender14QRenderCapture16staticMetaObjectE@Qt_5 5.9.0
 _ZN10Qt3DRender14QRenderCaptureC1EPN8Qt3DCore5QNodeE@Qt_5 5.9.0
 _ZN10Qt3DRender14QRenderCaptureC2EPN8Qt3DCore5QNodeE@Qt_5 5.9.0
 _ZN10Qt3DRender14QSceneExporter11qt_metacallEN11QMetaObject4CallEiPPv@Qt_5 5.9.0
 _ZN10Qt3DRender14QSceneExporter11qt_metacastEPKc@Qt_5 5.9.0
 _ZN10Qt3DRender14QSceneExporter13errorsChangedERK11QStringList@Qt_5 5.9.0
 _ZN10Qt3DRender14QSceneExporter16staticMetaObjectE@Qt_5 5.9.0
 _ZN10Qt3DRender14QSceneExporter7logInfoERK7QString@Qt_5 5.9.0
 _ZN10Qt3DRender14QSceneExporter8logErrorERK7QString@Qt_5 5.9.0
 _ZN10Qt3DRender14QSceneExporterC1Ev@Qt_5 5.9.0
 _ZN10Qt3DRender14QSceneExporterC2Ev@Qt_5 5.9.0
 _ZN10Qt3DRender14QSceneExporterD0Ev@Qt_5 5.9.0
 _ZN10Qt3DRender14QSceneExporterD1Ev@Qt_5 5.9.0
 _ZN10Qt3DRender14QSceneExporterD2Ev@Qt_5 5.9.0
 _ZN10Qt3DRender14QSceneImporter11qt_metacallEN11QMetaObject4CallEiPPv@Qt_5 5.9.0
 _ZN10Qt3DRender14QSceneImporter11qt_metacastEPKc@Qt_5 5.9.0
 _ZN10Qt3DRender14QSceneImporter13errorsChangedERK11QStringList@Qt_5 5.9.0
 _ZN10Qt3DRender14QSceneImporter13statusChangedENS0_12ParserStatusE@Qt_5 5.9.0
 _ZN10Qt3DRender14QSceneImporter16staticMetaObjectE@Qt_5 5.9.0
 _ZN10Qt3DRender14QSceneImporter7logInfoERK7QString@Qt_5 5.9.0
 _ZN10Qt3DRender14QSceneImporter8logErrorERK7QString@Qt_5 5.9.0
 _ZN10Qt3DRender14QSceneImporter9setStatusENS0_12ParserStatusE@Qt_5 5.9.0
 _ZN10Qt3DRender14QSceneImporterC1Ev@Qt_5 5.9.0
 _ZN10Qt3DRender14QSceneImporterC2Ev@Qt_5 5.9.0
 _ZN10Qt3DRender14QSceneImporterD0Ev@Qt_5 5.9.0
 _ZN10Qt3DRender14QSceneImporterD1Ev@Qt_5 5.9.0
 _ZN10Qt3DRender14QSceneImporterD2Ev@Qt_5 5.9.0
 _ZN10Qt3DRender14QShaderProgram10loadSourceERK4QUrl@Qt_5 5.7.1~20161122
 _ZN10Qt3DRender14QShaderProgram10logChangedERK7QString@Qt_5 5.9.0
 _ZN10Qt3DRender14QShaderProgram11qt_metacallEN11QMetaObject4CallEiPPv@Qt_5 5.7.1~20161122
 _ZN10Qt3DRender14QShaderProgram11qt_metacastEPKc@Qt_5 5.7.1~20161122
 _ZN10Qt3DRender14QShaderProgram13setShaderCodeENS0_10ShaderTypeERK10QByteArray@Qt_5 5.7.1~20161122
 _ZN10Qt3DRender14QShaderProgram13statusChangedENS0_6StatusE@Qt_5 5.9.0
 _ZN10Qt3DRender14QShaderProgram16sceneChangeEventERK14QSharedPointerIN8Qt3DCore12QSceneChangeEE@Qt_5 5.9.0
 _ZN10Qt3DRender14QShaderProgram16staticMetaObjectE@Qt_5 5.7.1~20161122
 _ZN10Qt3DRender14QShaderProgram19setVertexShaderCodeERK10QByteArray@Qt_5 5.7.1~20161122
 _ZN10Qt3DRender14QShaderProgram20setComputeShaderCodeERK10QByteArray@Qt_5 5.7.1~20161122
 _ZN10Qt3DRender14QShaderProgram21setFragmentShaderCodeERK10QByteArray@Qt_5 5.7.1~20161122
 _ZN10Qt3DRender14QShaderProgram21setGeometryShaderCodeERK10QByteArray@Qt_5 5.7.1~20161122
 _ZN10Qt3DRender14QShaderProgram23vertexShaderCodeChangedERK10QByteArray@Qt_5 5.7.1~20161122
 _ZN10Qt3DRender14QShaderProgram24computeShaderCodeChangedERK10QByteArray@Qt_5 5.7.1~20161122
 _ZN10Qt3DRender14QShaderProgram25fragmentShaderCodeChangedERK10QByteArray@Qt_5 5.7.1~20161122
 _ZN10Qt3DRender14QShaderProgram25geometryShaderCodeChangedERK10QByteArray@Qt_5 5.7.1~20161122
 _ZN10Qt3DRender14QShaderProgram32setTessellationControlShaderCodeERK10QByteArray@Qt_5 5.7.1~20161122
 _ZN10Qt3DRender14QShaderProgram35setTessellationEvaluationShaderCodeERK10QByteArray@Qt_5 5.7.1~20161122
 _ZN10Qt3DRender14QShaderProgram36tessellationControlShaderCodeChangedERK10QByteArray@Qt_5 5.7.1~20161122
 _ZN10Qt3DRender14QShaderProgram39tessellationEvaluationShaderCodeChangedERK10QByteArray@Qt_5 5.7.1~20161122
 _ZN10Qt3DRender14QShaderProgramC1EPN8Qt3DCore5QNodeE@Qt_5 5.7.1~20161122
 _ZN10Qt3DRender14QShaderProgramC1ERNS_21QShaderProgramPrivateEPN8Qt3DCore5QNodeE@Qt_5 5.7.1~20161122
 _ZN10Qt3DRender14QShaderProgramC2EPN8Qt3DCore5QNodeE@Qt_5 5.7.1~20161122
 _ZN10Qt3DRender14QShaderProgramC2ERNS_21QShaderProgramPrivateEPN8Qt3DCore5QNodeE@Qt_5 5.7.1~20161122
 _ZN10Qt3DRender14QShaderProgramD0Ev@Qt_5 5.7.1~20161122
 _ZN10Qt3DRender14QShaderProgramD1Ev@Qt_5 5.7.1~20161122
 _ZN10Qt3DRender14QShaderProgramD2Ev@Qt_5 5.7.1~20161122
 _ZN10Qt3DRender14QTextureBuffer11qt_metacallEN11QMetaObject4CallEiPPv@Qt_5 5.7.1~20161122
 _ZN10Qt3DRender14QTextureBuffer11qt_metacastEPKc@Qt_5 5.7.1~20161122
 _ZN10Qt3DRender14QTextureBuffer16staticMetaObjectE@Qt_5 5.7.1~20161122
 _ZN10Qt3DRender14QTextureBufferC1EPN8Qt3DCore5QNodeE@Qt_5 5.7.1~20161122
 _ZN10Qt3DRender14QTextureBufferC2EPN8Qt3DCore5QNodeE@Qt_5 5.7.1~20161122
 _ZN10Qt3DRender14QTextureBufferD0Ev@Qt_5 5.7.1~20161122
 _ZN10Qt3DRender14QTextureBufferD1Ev@Qt_5 5.7.1~20161122
 _ZN10Qt3DRender14QTextureBufferD2Ev@Qt_5 5.7.1~20161122
 _ZN10Qt3DRender14QTextureLoader11qt_metacallEN11QMetaObject4CallEiPPv@Qt_5 5.7.1~20161122
 _ZN10Qt3DRender14QTextureLoader11qt_metacastEPKc@Qt_5 5.7.1~20161122
 _ZN10Qt3DRender14QTextureLoader11setMirroredEb@Qt_5 5.9.0
 _ZN10Qt3DRender14QTextureLoader13sourceChangedERK4QUrl@Qt_5 5.7.1~20161122
 _ZN10Qt3DRender14QTextureLoader15mirroredChangedEb@Qt_5 5.9.0
 _ZN10Qt3DRender14QTextureLoader16staticMetaObjectE@Qt_5 5.7.1~20161122
 _ZN10Qt3DRender14QTextureLoader9setSourceERK4QUrl@Qt_5 5.7.1~20161122
 _ZN10Qt3DRender14QTextureLoaderC1EPN8Qt3DCore5QNodeE@Qt_5 5.7.1~20161122
 _ZN10Qt3DRender14QTextureLoaderC2EPN8Qt3DCore5QNodeE@Qt_5 5.7.1~20161122
 _ZN10Qt3DRender14QTextureLoaderD0Ev@Qt_5 5.7.1~20161122
 _ZN10Qt3DRender14QTextureLoaderD1Ev@Qt_5 5.7.1~20161122
 _ZN10Qt3DRender14QTextureLoaderD2Ev@Qt_5 5.7.1~20161122
 _ZN10Qt3DRender15QCameraSelector11qt_metacallEN11QMetaObject4CallEiPPv@Qt_5 5.7.1~20161122
 _ZN10Qt3DRender15QCameraSelector11qt_metacastEPKc@Qt_5 5.7.1~20161122
 _ZN10Qt3DRender15QCameraSelector13cameraChangedEPN8Qt3DCore7QEntityE@Qt_5 5.7.1~20161122
 _ZN10Qt3DRender15QCameraSelector16staticMetaObjectE@Qt_5 5.7.1~20161122
 _ZN10Qt3DRender15QCameraSelector9setCameraEPN8Qt3DCore7QEntityE@Qt_5 5.7.1~20161122
 _ZN10Qt3DRender15QCameraSelectorC1EPN8Qt3DCore5QNodeE@Qt_5 5.7.1~20161122
 _ZN10Qt3DRender15QCameraSelectorC1ERNS_22QCameraSelectorPrivateEPN8Qt3DCore5QNodeE@Qt_5 5.7.1~20161122
 _ZN10Qt3DRender15QCameraSelectorC2EPN8Qt3DCore5QNodeE@Qt_5 5.7.1~20161122
 _ZN10Qt3DRender15QCameraSelectorC2ERNS_22QCameraSelectorPrivateEPN8Qt3DCore5QNodeE@Qt_5 5.7.1~20161122
 _ZN10Qt3DRender15QCameraSelectorD0Ev@Qt_5 5.7.1~20161122
 _ZN10Qt3DRender15QCameraSelectorD1Ev@Qt_5 5.7.1~20161122
 _ZN10Qt3DRender15QCameraSelectorD2Ev@Qt_5 5.7.1~20161122
 _ZN10Qt3DRender15QComputeCommand11qt_metacallEN11QMetaObject4CallEiPPv@Qt_5 5.7.1~20161122
 _ZN10Qt3DRender15QComputeCommand11qt_metacastEPKc@Qt_5 5.7.1~20161122
 _ZN10Qt3DRender15QComputeCommand13setWorkGroupXEi@Qt_5 5.7.1~20161122
 _ZN10Qt3DRender15QComputeCommand13setWorkGroupYEi@Qt_5 5.7.1~20161122
 _ZN10Qt3DRender15QComputeCommand13setWorkGroupZEi@Qt_5 5.7.1~20161122
 _ZN10Qt3DRender15QComputeCommand16staticMetaObjectE@Qt_5 5.7.1~20161122
 _ZN10Qt3DRender15QComputeCommand17workGroupXChangedEv@Qt_5 5.7.1~20161122
 _ZN10Qt3DRender15QComputeCommand17workGroupYChangedEv@Qt_5 5.7.1~20161122
 _ZN10Qt3DRender15QComputeCommand17workGroupZChangedEv@Qt_5 5.7.1~20161122
 _ZN10Qt3DRender15QComputeCommandC1EPN8Qt3DCore5QNodeE@Qt_5 5.7.1~20161122
 _ZN10Qt3DRender15QComputeCommandC2EPN8Qt3DCore5QNodeE@Qt_5 5.7.1~20161122
 _ZN10Qt3DRender15QComputeCommandD0Ev@Qt_5 5.7.1~20161122
 _ZN10Qt3DRender15QComputeCommandD1Ev@Qt_5 5.7.1~20161122
 _ZN10Qt3DRender15QComputeCommandD2Ev@Qt_5 5.7.1~20161122
 _ZN10Qt3DRender15QFrameGraphNode11qt_metacallEN11QMetaObject4CallEiPPv@Qt_5 5.7.1~20161122
 _ZN10Qt3DRender15QFrameGraphNode11qt_metacastEPKc@Qt_5 5.7.1~20161122
 _ZN10Qt3DRender15QFrameGraphNode16staticMetaObjectE@Qt_5 5.7.1~20161122
 _ZN10Qt3DRender15QFrameGraphNodeC1EPN8Qt3DCore5QNodeE@Qt_5 5.7.1~20161122
 _ZN10Qt3DRender15QFrameGraphNodeC1ERNS_22QFrameGraphNodePrivateEPN8Qt3DCore5QNodeE@Qt_5 5.7.1~20161122
 _ZN10Qt3DRender15QFrameGraphNodeC2EPN8Qt3DCore5QNodeE@Qt_5 5.7.1~20161122
 _ZN10Qt3DRender15QFrameGraphNodeC2ERNS_22QFrameGraphNodePrivateEPN8Qt3DCore5QNodeE@Qt_5 5.7.1~20161122
 _ZN10Qt3DRender15QFrameGraphNodeD0Ev@Qt_5 5.7.1~20161122
 _ZN10Qt3DRender15QFrameGraphNodeD1Ev@Qt_5 5.7.1~20161122
 _ZN10Qt3DRender15QFrameGraphNodeD2Ev@Qt_5 5.7.1~20161122
 _ZN10Qt3DRender15QFrustumCulling11qt_metacallEN11QMetaObject4CallEiPPv@Qt_5 5.7.1~20161122
 _ZN10Qt3DRender15QFrustumCulling11qt_metacastEPKc@Qt_5 5.7.1~20161122
 _ZN10Qt3DRender15QFrustumCulling16staticMetaObjectE@Qt_5 5.7.1~20161122
 _ZN10Qt3DRender15QFrustumCullingC1EPN8Qt3DCore5QNodeE@Qt_5 5.7.1~20161122
 _ZN10Qt3DRender15QFrustumCullingC2EPN8Qt3DCore5QNodeE@Qt_5 5.7.1~20161122
 _ZN10Qt3DRender15QFrustumCullingD0Ev@Qt_5 5.7.1~20161122
 _ZN10Qt3DRender15QFrustumCullingD1Ev@Qt_5 5.7.1~20161122
 _ZN10Qt3DRender15QFrustumCullingD2Ev@Qt_5 5.7.1~20161122
 _ZN10Qt3DRender15QRenderSettings11qt_metacallEN11QMetaObject4CallEiPPv@Qt_5 5.7.1~20161122
 _ZN10Qt3DRender15QRenderSettings11qt_metacastEPKc@Qt_5 5.7.1~20161122
 _ZN10Qt3DRender15QRenderSettings15pickingSettingsEv@Qt_5 5.7.1~20161122
 _ZN10Qt3DRender15QRenderSettings15setRenderPolicyENS0_12RenderPolicyE@Qt_5 5.7.1~20161122
 _ZN10Qt3DRender15QRenderSettings16staticMetaObjectE@Qt_5 5.7.1~20161122
 _ZN10Qt3DRender15QRenderSettings19renderPolicyChangedENS0_12RenderPolicyE@Qt_5 5.7.1~20161122
 _ZN10Qt3DRender15QRenderSettings19setActiveFrameGraphEPNS_15QFrameGraphNodeE@Qt_5 5.7.1~20161122
 _ZN10Qt3DRender15QRenderSettings23activeFrameGraphChangedEPNS_15QFrameGraphNodeE@Qt_5 5.7.1~20161122
 _ZN10Qt3DRender15QRenderSettingsC1EPN8Qt3DCore5QNodeE@Qt_5 5.7.1~20161122
 _ZN10Qt3DRender15QRenderSettingsC1ERNS_22QRenderSettingsPrivateEPN8Qt3DCore5QNodeE@Qt_5 5.7.1~20161122
 _ZN10Qt3DRender15QRenderSettingsC2EPN8Qt3DCore5QNodeE@Qt_5 5.7.1~20161122
 _ZN10Qt3DRender15QRenderSettingsC2ERNS_22QRenderSettingsPrivateEPN8Qt3DCore5QNodeE@Qt_5 5.7.1~20161122
 _ZN10Qt3DRender15QRenderSettingsD0Ev@Qt_5 5.7.1~20161122
 _ZN10Qt3DRender15QRenderSettingsD1Ev@Qt_5 5.7.1~20161122
 _ZN10Qt3DRender15QRenderSettingsD2Ev@Qt_5 5.7.1~20161122
 _ZN10Qt3DRender15QRenderStateSet11qt_metacallEN11QMetaObject4CallEiPPv@Qt_5 5.7.1~20161122
 _ZN10Qt3DRender15QRenderStateSet11qt_metacastEPKc@Qt_5 5.7.1~20161122
 _ZN10Qt3DRender15QRenderStateSet14addRenderStateEPNS_12QRenderStateE@Qt_5 5.7.1~20161122
 _ZN10Qt3DRender15QRenderStateSet16staticMetaObjectE@Qt_5 5.7.1~20161122
 _ZN10Qt3DRender15QRenderStateSet17removeRenderStateEPNS_12QRenderStateE@Qt_5 5.7.1~20161122
 _ZN10Qt3DRender15QRenderStateSetC1EPN8Qt3DCore5QNodeE@Qt_5 5.7.1~20161122
 _ZN10Qt3DRender15QRenderStateSetC2EPN8Qt3DCore5QNodeE@Qt_5 5.7.1~20161122
 _ZN10Qt3DRender15QRenderStateSetD0Ev@Qt_5 5.7.1~20161122
 _ZN10Qt3DRender15QRenderStateSetD1Ev@Qt_5 5.7.1~20161122
 _ZN10Qt3DRender15QRenderStateSetD2Ev@Qt_5 5.7.1~20161122
 _ZN10Qt3DRender15QTexture1DArray11qt_metacallEN11QMetaObject4CallEiPPv@Qt_5 5.7.1~20161122
 _ZN10Qt3DRender15QTexture1DArray11qt_metacastEPKc@Qt_5 5.7.1~20161122
 _ZN10Qt3DRender15QTexture1DArray16staticMetaObjectE@Qt_5 5.7.1~20161122
 _ZN10Qt3DRender15QTexture1DArrayC1EPN8Qt3DCore5QNodeE@Qt_5 5.7.1~20161122
 _ZN10Qt3DRender15QTexture1DArrayC2EPN8Qt3DCore5QNodeE@Qt_5 5.7.1~20161122
 _ZN10Qt3DRender15QTexture1DArrayD0Ev@Qt_5 5.7.1~20161122
 _ZN10Qt3DRender15QTexture1DArrayD1Ev@Qt_5 5.7.1~20161122
 _ZN10Qt3DRender15QTexture1DArrayD2Ev@Qt_5 5.7.1~20161122
 _ZN10Qt3DRender15QTexture2DArray11qt_metacallEN11QMetaObject4CallEiPPv@Qt_5 5.7.1~20161122
 _ZN10Qt3DRender15QTexture2DArray11qt_metacastEPKc@Qt_5 5.7.1~20161122
 _ZN10Qt3DRender15QTexture2DArray16staticMetaObjectE@Qt_5 5.7.1~20161122
 _ZN10Qt3DRender15QTexture2DArrayC1EPN8Qt3DCore5QNodeE@Qt_5 5.7.1~20161122
 _ZN10Qt3DRender15QTexture2DArrayC2EPN8Qt3DCore5QNodeE@Qt_5 5.7.1~20161122
 _ZN10Qt3DRender15QTexture2DArrayD0Ev@Qt_5 5.7.1~20161122
 _ZN10Qt3DRender15QTexture2DArrayD1Ev@Qt_5 5.7.1~20161122
 _ZN10Qt3DRender15QTexture2DArrayD2Ev@Qt_5 5.7.1~20161122
 _ZN10Qt3DRender15QTextureCubeMap11qt_metacallEN11QMetaObject4CallEiPPv@Qt_5 5.7.1~20161122
 _ZN10Qt3DRender15QTextureCubeMap11qt_metacastEPKc@Qt_5 5.7.1~20161122
 _ZN10Qt3DRender15QTextureCubeMap16staticMetaObjectE@Qt_5 5.7.1~20161122
 _ZN10Qt3DRender15QTextureCubeMapC1EPN8Qt3DCore5QNodeE@Qt_5 5.7.1~20161122
 _ZN10Qt3DRender15QTextureCubeMapC2EPN8Qt3DCore5QNodeE@Qt_5 5.7.1~20161122
 _ZN10Qt3DRender15QTextureCubeMapD0Ev@Qt_5 5.7.1~20161122
 _ZN10Qt3DRender15QTextureCubeMapD1Ev@Qt_5 5.7.1~20161122
 _ZN10Qt3DRender15QTextureCubeMapD2Ev@Qt_5 5.7.1~20161122
 _ZN10Qt3DRender16QAbstractFunctorD0Ev@Qt_5 5.7.1~20161122
 _ZN10Qt3DRender16QAbstractFunctorD1Ev@Qt_5 5.7.1~20161122
 _ZN10Qt3DRender16QAbstractFunctorD2Ev@Qt_5 5.7.1~20161122
 _ZN10Qt3DRender16QAbstractTexture10setSamplesEi@Qt_5 5.9.0
 _ZN10Qt3DRender16QAbstractTexture11qt_metacallEN11QMetaObject4CallEiPPv@Qt_5 5.7.1~20161122
 _ZN10Qt3DRender16QAbstractTexture11qt_metacastEPKc@Qt_5 5.7.1~20161122
 _ZN10Qt3DRender16QAbstractTexture11setWrapModeERKNS_16QTextureWrapModeE@Qt_5 5.7.1~20161122
 _ZN10Qt3DRender16QAbstractTexture12depthChangedEi@Qt_5 5.7.1~20161122
 _ZN10Qt3DRender16QAbstractTexture12widthChangedEi@Qt_5 5.7.1~20161122
 _ZN10Qt3DRender16QAbstractTexture13formatChangedENS0_13TextureFormatE@Qt_5 5.7.1~20161122
 _ZN10Qt3DRender16QAbstractTexture13heightChangedEi@Qt_5 5.7.1~20161122
 _ZN10Qt3DRender16QAbstractTexture13layersChangedEi@Qt_5 5.7.1~20161122
 _ZN10Qt3DRender16QAbstractTexture13statusChangedENS0_6StatusE@Qt_5 5.7.1~20161122
 _ZN10Qt3DRender16QAbstractTexture14samplesChangedEi@Qt_5 5.9.0
 _ZN10Qt3DRender16QAbstractTexture15addTextureImageEPNS_21QAbstractTextureImageE@Qt_5 5.7.1~20161122
 _ZN10Qt3DRender16QAbstractTexture16staticMetaObjectE@Qt_5 5.7.1~20161122
 _ZN10Qt3DRender16QAbstractTexture17setComparisonModeENS0_14ComparisonModeE@Qt_5 5.7.1~20161122
 _ZN10Qt3DRender16QAbstractTexture18removeTextureImageEPNS_21QAbstractTextureImageE@Qt_5 5.7.1~20161122
 _ZN10Qt3DRender16QAbstractTexture18setGenerateMipMapsEb@Qt_5 5.7.1~20161122
 _ZN10Qt3DRender16QAbstractTexture20setMaximumAnisotropyEf@Qt_5 5.7.1~20161122
 _ZN10Qt3DRender16QAbstractTexture21comparisonModeChangedENS0_14ComparisonModeE@Qt_5 5.7.1~20161122
 _ZN10Qt3DRender16QAbstractTexture21setComparisonFunctionENS0_18ComparisonFunctionE@Qt_5 5.7.1~20161122
 _ZN10Qt3DRender16QAbstractTexture21setMinificationFilterENS0_6FilterE@Qt_5 5.7.1~20161122
 _ZN10Qt3DRender16QAbstractTexture22generateMipMapsChangedEb@Qt_5 5.7.1~20161122
 _ZN10Qt3DRender16QAbstractTexture22setMagnificationFilterENS0_6FilterE@Qt_5 5.7.1~20161122
 _ZN10Qt3DRender16QAbstractTexture24maximumAnisotropyChangedEf@Qt_5 5.7.1~20161122
 _ZN10Qt3DRender16QAbstractTexture25comparisonFunctionChangedENS0_18ComparisonFunctionE@Qt_5 5.7.1~20161122
 _ZN10Qt3DRender16QAbstractTexture25minificationFilterChangedENS0_6FilterE@Qt_5 5.7.1~20161122
 _ZN10Qt3DRender16QAbstractTexture26magnificationFilterChangedENS0_6FilterE@Qt_5 5.7.1~20161122
 _ZN10Qt3DRender16QAbstractTexture7setSizeEiii@Qt_5 5.7.1~20161122
 _ZN10Qt3DRender16QAbstractTexture8setDepthEi@Qt_5 5.7.1~20161122
 _ZN10Qt3DRender16QAbstractTexture8setWidthEi@Qt_5 5.7.1~20161122
 _ZN10Qt3DRender16QAbstractTexture8wrapModeEv@Qt_5 5.7.1~20161122
 _ZN10Qt3DRender16QAbstractTexture9setFormatENS0_13TextureFormatE@Qt_5 5.7.1~20161122
 _ZN10Qt3DRender16QAbstractTexture9setHeightEi@Qt_5 5.7.1~20161122
 _ZN10Qt3DRender16QAbstractTexture9setLayersEi@Qt_5 5.7.1~20161122
 _ZN10Qt3DRender16QAbstractTexture9setStatusENS0_6StatusE@Qt_5 5.7.1~20161122
 _ZN10Qt3DRender16QAbstractTextureC1ENS0_6TargetEPN8Qt3DCore5QNodeE@Qt_5 5.7.1~20161122
 _ZN10Qt3DRender16QAbstractTextureC1EPN8Qt3DCore5QNodeE@Qt_5 5.7.1~20161122
 _ZN10Qt3DRender16QAbstractTextureC1ERNS_23QAbstractTexturePrivateEPN8Qt3DCore5QNodeE@Qt_5 5.7.1~20161122
 _ZN10Qt3DRender16QAbstractTextureC2ENS0_6TargetEPN8Qt3DCore5QNodeE@Qt_5 5.7.1~20161122
 _ZN10Qt3DRender16QAbstractTextureC2EPN8Qt3DCore5QNodeE@Qt_5 5.7.1~20161122
 _ZN10Qt3DRender16QAbstractTextureC2ERNS_23QAbstractTexturePrivateEPN8Qt3DCore5QNodeE@Qt_5 5.7.1~20161122
 _ZN10Qt3DRender16QAbstractTextureD0Ev@Qt_5 5.7.1~20161122
 _ZN10Qt3DRender16QAbstractTextureD1Ev@Qt_5 5.7.1~20161122
 _ZN10Qt3DRender16QAbstractTextureD2Ev@Qt_5 5.7.1~20161122
 _ZN10Qt3DRender16QDispatchCompute11qt_metacallEN11QMetaObject4CallEiPPv@Qt_5 5.7.1~20161122
 _ZN10Qt3DRender16QDispatchCompute11qt_metacastEPKc@Qt_5 5.7.1~20161122
 _ZN10Qt3DRender16QDispatchCompute13setWorkGroupXEi@Qt_5 5.7.1~20161122
 _ZN10Qt3DRender16QDispatchCompute13setWorkGroupYEi@Qt_5 5.7.1~20161122
 _ZN10Qt3DRender16QDispatchCompute13setWorkGroupZEi@Qt_5 5.7.1~20161122
 _ZN10Qt3DRender16QDispatchCompute16staticMetaObjectE@Qt_5 5.7.1~20161122
 _ZN10Qt3DRender16QDispatchCompute17workGroupXChangedEv@Qt_5 5.7.1~20161122
 _ZN10Qt3DRender16QDispatchCompute17workGroupYChangedEv@Qt_5 5.7.1~20161122
 _ZN10Qt3DRender16QDispatchCompute17workGroupZChangedEv@Qt_5 5.7.1~20161122
 _ZN10Qt3DRender16QDispatchComputeC1EPN8Qt3DCore5QNodeE@Qt_5 5.7.1~20161122
 _ZN10Qt3DRender16QDispatchComputeC2EPN8Qt3DCore5QNodeE@Qt_5 5.7.1~20161122
 _ZN10Qt3DRender16QDispatchComputeD0Ev@Qt_5 5.7.1~20161122
 _ZN10Qt3DRender16QDispatchComputeD1Ev@Qt_5 5.7.1~20161122
 _ZN10Qt3DRender16QDispatchComputeD2Ev@Qt_5 5.7.1~20161122
 _ZN10Qt3DRender16QGeometryFactoryD0Ev@Qt_5 5.7.1~20161122
 _ZN10Qt3DRender16QGeometryFactoryD1Ev@Qt_5 5.7.1~20161122
 _ZN10Qt3DRender16QGeometryFactoryD2Ev@Qt_5 5.7.1~20161122
 _ZN10Qt3DRender16QGeometryPrivateC1Ev@Qt_5 5.7.1~20161122
 _ZN10Qt3DRender16QGeometryPrivateC2Ev@Qt_5 5.7.1~20161122
 _ZN10Qt3DRender16QGeometryPrivateD0Ev@Qt_5 5.7.1~20161122
 _ZN10Qt3DRender16QGeometryPrivateD1Ev@Qt_5 5.7.1~20161122
 _ZN10Qt3DRender16QGeometryPrivateD2Ev@Qt_5 5.7.1~20161122
 _ZN10Qt3DRender16QItemModelBuffer11RoleMappingC1E10QByteArray7QStringi@Qt_5 5.7.1~20161122
 _ZN10Qt3DRender16QItemModelBuffer11RoleMappingC2E10QByteArray7QStringi@Qt_5 5.7.1~20161122
 _ZN10Qt3DRender16QItemModelBuffer11mapRoleNameE10QByteArray7QStringi@Qt_5 5.7.1~20161122
 _ZN10Qt3DRender16QItemModelBuffer11mapRoleNameE10QByteArrayi@Qt_5 5.7.1~20161122
 _ZN10Qt3DRender16QItemModelBuffer11qt_metacallEN11QMetaObject4CallEiPPv@Qt_5 5.7.1~20161122
 _ZN10Qt3DRender16QItemModelBuffer11qt_metacastEPKc@Qt_5 5.7.1~20161122
 _ZN10Qt3DRender16QItemModelBuffer12onModelResetEv@Qt_5 5.7.1~20161122
 _ZN10Qt3DRender16QItemModelBuffer13validateRolesEv@Qt_5 5.7.1~20161122
 _ZN10Qt3DRender16QItemModelBuffer16staticMetaObjectE@Qt_5 5.7.1~20161122
 _ZN10Qt3DRender16QItemModelBuffer17computeBufferDataEv@Qt_5 5.7.1~20161122
 _ZN10Qt3DRender16QItemModelBuffer17writeDataForIndexERK11QModelIndexiPc@Qt_5 5.7.1~20161122
 _ZN10Qt3DRender16QItemModelBuffer18onModelDataChangedERK11QModelIndexS3_@Qt_5 5.7.1~20161122
 _ZN10Qt3DRender16QItemModelBuffer6bufferEv@Qt_5 5.7.1~20161122
 _ZN10Qt3DRender16QItemModelBuffer7setRootERK11QModelIndex@Qt_5 5.7.1~20161122
 _ZN10Qt3DRender16QItemModelBuffer8setModelEP18QAbstractItemModel@Qt_5 5.7.1~20161122
 _ZN10Qt3DRender16QItemModelBufferC1Ev@Qt_5 5.7.1~20161122
 _ZN10Qt3DRender16QItemModelBufferC2Ev@Qt_5 5.7.1~20161122
 _ZN10Qt3DRender16QMaterialPrivateC1Ev@Qt_5 5.7.1~20161122
 _ZN10Qt3DRender16QMaterialPrivateC2Ev@Qt_5 5.7.1~20161122
 _ZN10Qt3DRender16QMaterialPrivateD0Ev@Qt_5 5.7.1~20161122
 _ZN10Qt3DRender16QMaterialPrivateD1Ev@Qt_5 5.7.1~20161122
 _ZN10Qt3DRender16QMaterialPrivateD2Ev@Qt_5 5.7.1~20161122
 _ZN10Qt3DRender16QPickingSettings11qt_metacallEN11QMetaObject4CallEiPPv@Qt_5 5.7.1~20161122
 _ZN10Qt3DRender16QPickingSettings11qt_metacastEPKc@Qt_5 5.7.1~20161122
 _ZN10Qt3DRender16QPickingSettings13setPickMethodENS0_10PickMethodE@Qt_5 5.7.1~20161122
 _ZN10Qt3DRender16QPickingSettings16staticMetaObjectE@Qt_5 5.7.1~20161122
 _ZN10Qt3DRender16QPickingSettings17pickMethodChangedENS0_10PickMethodE@Qt_5 5.7.1~20161122
 _ZN10Qt3DRender16QPickingSettings17setPickResultModeENS0_14PickResultModeE@Qt_5 5.7.1~20161122
 _ZN10Qt3DRender16QPickingSettings21pickResultModeChangedENS0_14PickResultModeE@Qt_5 5.7.1~20161122
 _ZN10Qt3DRender16QPickingSettings29setFaceOrientationPickingModeENS0_26FaceOrientationPickingModeE@Qt_5 5.9.0
 _ZN10Qt3DRender16QPickingSettings33faceOrientationPickingModeChangedENS0_26FaceOrientationPickingModeE@Qt_5 5.9.0
 _ZN10Qt3DRender16QPickingSettingsC1EPN8Qt3DCore5QNodeE@Qt_5 5.7.1~20161122
 _ZN10Qt3DRender16QPickingSettingsC1ERNS_23QPickingSettingsPrivateEPN8Qt3DCore5QNodeE@Qt_5 5.7.1~20161122
 _ZN10Qt3DRender16QPickingSettingsC2EPN8Qt3DCore5QNodeE@Qt_5 5.7.1~20161122
 _ZN10Qt3DRender16QPickingSettingsC2ERNS_23QPickingSettingsPrivateEPN8Qt3DCore5QNodeE@Qt_5 5.7.1~20161122
 _ZN10Qt3DRender16QPickingSettingsD0Ev@Qt_5 5.7.1~20161122
 _ZN10Qt3DRender16QPickingSettingsD1Ev@Qt_5 5.7.1~20161122
 _ZN10Qt3DRender16QPickingSettingsD2Ev@Qt_5 5.7.1~20161122
 _ZN10Qt3DRender16QSeamlessCubemap11qt_metacallEN11QMetaObject4CallEiPPv@Qt_5 5.7.1~20161122
 _ZN10Qt3DRender16QSeamlessCubemap11qt_metacastEPKc@Qt_5 5.7.1~20161122
 _ZN10Qt3DRender16QSeamlessCubemap16staticMetaObjectE@Qt_5 5.7.1~20161122
 _ZN10Qt3DRender16QSeamlessCubemapC1EPN8Qt3DCore5QNodeE@Qt_5 5.7.1~20161122
 _ZN10Qt3DRender16QSeamlessCubemapC2EPN8Qt3DCore5QNodeE@Qt_5 5.7.1~20161122
 _ZN10Qt3DRender16QSeamlessCubemapD0Ev@Qt_5 5.7.1~20161122
 _ZN10Qt3DRender16QSeamlessCubemapD1Ev@Qt_5 5.7.1~20161122
 _ZN10Qt3DRender16QSeamlessCubemapD2Ev@Qt_5 5.7.1~20161122
 _ZN10Qt3DRender16QTechniqueFilter11qt_metacallEN11QMetaObject4CallEiPPv@Qt_5 5.7.1~20161122
 _ZN10Qt3DRender16QTechniqueFilter11qt_metacastEPKc@Qt_5 5.7.1~20161122
 _ZN10Qt3DRender16QTechniqueFilter11removeMatchEPNS_10QFilterKeyE@Qt_5 5.7.1~20161122
 _ZN10Qt3DRender16QTechniqueFilter12addParameterEPNS_10QParameterE@Qt_5 5.7.1~20161122
 _ZN10Qt3DRender16QTechniqueFilter15removeParameterEPNS_10QParameterE@Qt_5 5.7.1~20161122
 _ZN10Qt3DRender16QTechniqueFilter16staticMetaObjectE@Qt_5 5.7.1~20161122
 _ZN10Qt3DRender16QTechniqueFilter8addMatchEPNS_10QFilterKeyE@Qt_5 5.7.1~20161122
 _ZN10Qt3DRender16QTechniqueFilterC1EPN8Qt3DCore5QNodeE@Qt_5 5.7.1~20161122
 _ZN10Qt3DRender16QTechniqueFilterC1ERNS_23QTechniqueFilterPrivateEPN8Qt3DCore5QNodeE@Qt_5 5.7.1~20161122
 _ZN10Qt3DRender16QTechniqueFilterC2EPN8Qt3DCore5QNodeE@Qt_5 5.7.1~20161122
 _ZN10Qt3DRender16QTechniqueFilterC2ERNS_23QTechniqueFilterPrivateEPN8Qt3DCore5QNodeE@Qt_5 5.7.1~20161122
 _ZN10Qt3DRender16QTechniqueFilterD0Ev@Qt_5 5.7.1~20161122
 _ZN10Qt3DRender16QTechniqueFilterD1Ev@Qt_5 5.7.1~20161122
 _ZN10Qt3DRender16QTechniqueFilterD2Ev@Qt_5 5.7.1~20161122
 _ZN10Qt3DRender16QTextureWrapMode11qt_metacallEN11QMetaObject4CallEiPPv@Qt_5 5.7.1~20161122
 _ZN10Qt3DRender16QTextureWrapMode11qt_metacastEPKc@Qt_5 5.7.1~20161122
 _ZN10Qt3DRender16QTextureWrapMode16staticMetaObjectE@Qt_5 5.7.1~20161122
 _ZN10Qt3DRender16QTextureWrapMode4setXENS0_8WrapModeE@Qt_5 5.7.1~20161122
 _ZN10Qt3DRender16QTextureWrapMode4setYENS0_8WrapModeE@Qt_5 5.7.1~20161122
 _ZN10Qt3DRender16QTextureWrapMode4setZENS0_8WrapModeE@Qt_5 5.7.1~20161122
 _ZN10Qt3DRender16QTextureWrapMode8xChangedENS0_8WrapModeE@Qt_5 5.7.1~20161122
 _ZN10Qt3DRender16QTextureWrapMode8yChangedENS0_8WrapModeE@Qt_5 5.7.1~20161122
 _ZN10Qt3DRender16QTextureWrapMode8zChangedENS0_8WrapModeE@Qt_5 5.7.1~20161122
 _ZN10Qt3DRender16QTextureWrapModeC1ENS0_8WrapModeEP7QObject@Qt_5 5.7.1~20161122
 _ZN10Qt3DRender16QTextureWrapModeC1ENS0_8WrapModeES1_S1_P7QObject@Qt_5 5.7.1~20161122
 _ZN10Qt3DRender16QTextureWrapModeC2ENS0_8WrapModeEP7QObject@Qt_5 5.7.1~20161122
 _ZN10Qt3DRender16QTextureWrapModeC2ENS0_8WrapModeES1_S1_P7QObject@Qt_5 5.7.1~20161122
 _ZN10Qt3DRender16QTextureWrapModeD0Ev@Qt_5 5.7.1~20161122
 _ZN10Qt3DRender16QTextureWrapModeD1Ev@Qt_5 5.7.1~20161122
 _ZN10Qt3DRender16QTextureWrapModeD2Ev@Qt_5 5.7.1~20161122
 _ZN10Qt3DRender17QAttributePrivateC1Ev@Qt_5 5.7.1~20161122
 _ZN10Qt3DRender17QAttributePrivateC2Ev@Qt_5 5.7.1~20161122
 _ZN10Qt3DRender17QDirectionalLight11qt_metacallEN11QMetaObject4CallEiPPv@Qt_5 5.7.1~20161122
 _ZN10Qt3DRender17QDirectionalLight11qt_metacastEPKc@Qt_5 5.7.1~20161122
 _ZN10Qt3DRender17QDirectionalLight16staticMetaObjectE@Qt_5 5.7.1~20161122
 _ZN10Qt3DRender17QDirectionalLight17setWorldDirectionERK9QVector3D@Qt_5 5.7.1~20161122
 _ZN10Qt3DRender17QDirectionalLight21worldDirectionChangedERK9QVector3D@Qt_5 5.7.1~20161122
 _ZN10Qt3DRender17QDirectionalLightC1EPN8Qt3DCore5QNodeE@Qt_5 5.7.1~20161122
 _ZN10Qt3DRender17QDirectionalLightC1ERNS_24QDirectionalLightPrivateEPN8Qt3DCore5QNodeE@Qt_5 5.7.1~20161122
 _ZN10Qt3DRender17QDirectionalLightC2EPN8Qt3DCore5QNodeE@Qt_5 5.7.1~20161122
 _ZN10Qt3DRender17QDirectionalLightC2ERNS_24QDirectionalLightPrivateEPN8Qt3DCore5QNodeE@Qt_5 5.7.1~20161122
 _ZN10Qt3DRender17QDirectionalLightD0Ev@Qt_5 5.7.1~20161122
 _ZN10Qt3DRender17QDirectionalLightD1Ev@Qt_5 5.7.1~20161122
 _ZN10Qt3DRender17QDirectionalLightD2Ev@Qt_5 5.7.1~20161122
 _ZN10Qt3DRender17QEnvironmentLight11qt_metacallEN11QMetaObject4CallEiPPv@Qt_5 5.9.0
 _ZN10Qt3DRender17QEnvironmentLight11qt_metacastEPKc@Qt_5 5.9.0
 _ZN10Qt3DRender17QEnvironmentLight11setSpecularEPNS_16QAbstractTextureE@Qt_5 5.9.0
 _ZN10Qt3DRender17QEnvironmentLight13setIrradianceEPNS_16QAbstractTextureE@Qt_5 5.9.0
 _ZN10Qt3DRender17QEnvironmentLight15specularChangedEPNS_16QAbstractTextureE@Qt_5 5.9.0
 _ZN10Qt3DRender17QEnvironmentLight16staticMetaObjectE@Qt_5 5.9.0
 _ZN10Qt3DRender17QEnvironmentLight17irradianceChangedEPNS_16QAbstractTextureE@Qt_5 5.9.0
 _ZN10Qt3DRender17QEnvironmentLightC1EPN8Qt3DCore5QNodeE@Qt_5 5.9.0
 _ZN10Qt3DRender17QEnvironmentLightC1ERNS_24QEnvironmentLightPrivateEPN8Qt3DCore5QNodeE@Qt_5 5.9.1
 _ZN10Qt3DRender17QEnvironmentLightC2EPN8Qt3DCore5QNodeE@Qt_5 5.9.0
 _ZN10Qt3DRender17QEnvironmentLightC2ERNS_24QEnvironmentLightPrivateEPN8Qt3DCore5QNodeE@Qt_5 5.9.1
 _ZN10Qt3DRender17QEnvironmentLightD0Ev@Qt_5 5.9.0
 _ZN10Qt3DRender17QEnvironmentLightD1Ev@Qt_5 5.9.0
 _ZN10Qt3DRender17QEnvironmentLightD2Ev@Qt_5 5.9.0
 _ZN10Qt3DRender17QFilterKeyPrivateC1Ev@Qt_5 5.9.1
 _ZN10Qt3DRender17QFilterKeyPrivateC2Ev@Qt_5 5.9.1
 _ZN10Qt3DRender17QGeometryRenderer11qt_metacallEN11QMetaObject4CallEiPPv@Qt_5 5.7.1~20161122
 _ZN10Qt3DRender17QGeometryRenderer11qt_metacastEPKc@Qt_5 5.7.1~20161122
 _ZN10Qt3DRender17QGeometryRenderer11setGeometryEPNS_9QGeometryE@Qt_5 5.7.1~20161122
 _ZN10Qt3DRender17QGeometryRenderer14setFirstVertexEi@Qt_5 5.7.1~20161122
 _ZN10Qt3DRender17QGeometryRenderer14setIndexOffsetEi@Qt_5 5.7.1~20161122
 _ZN10Qt3DRender17QGeometryRenderer14setVertexCountEi@Qt_5 5.7.1~20161122
 _ZN10Qt3DRender17QGeometryRenderer15geometryChangedEPNS_9QGeometryE@Qt_5 5.7.1~20161122
 _ZN10Qt3DRender17QGeometryRenderer16sceneChangeEventERK14QSharedPointerIN8Qt3DCore12QSceneChangeEE@Qt_5 5.7.1~20161122
 _ZN10Qt3DRender17QGeometryRenderer16setFirstInstanceEi@Qt_5 5.7.1~20161122
 _ZN10Qt3DRender17QGeometryRenderer16setInstanceCountEi@Qt_5 5.7.1~20161122
 _ZN10Qt3DRender17QGeometryRenderer16setPrimitiveTypeENS0_13PrimitiveTypeE@Qt_5 5.7.1~20161122
 _ZN10Qt3DRender17QGeometryRenderer16staticMetaObjectE@Qt_5 5.7.1~20161122
 _ZN10Qt3DRender17QGeometryRenderer18firstVertexChangedEi@Qt_5 5.7.1~20161122
 _ZN10Qt3DRender17QGeometryRenderer18indexOffsetChangedEi@Qt_5 5.7.1~20161122
 _ZN10Qt3DRender17QGeometryRenderer18setGeometryFactoryERK14QSharedPointerINS_16QGeometryFactoryEE@Qt_5 5.7.1~20161122
 _ZN10Qt3DRender17QGeometryRenderer18vertexCountChangedEi@Qt_5 5.7.1~20161122
 _ZN10Qt3DRender17QGeometryRenderer19setVerticesPerPatchEi@Qt_5 5.7.1~20161122
 _ZN10Qt3DRender17QGeometryRenderer20firstInstanceChangedEi@Qt_5 5.7.1~20161122
 _ZN10Qt3DRender17QGeometryRenderer20instanceCountChangedEi@Qt_5 5.7.1~20161122
 _ZN10Qt3DRender17QGeometryRenderer20primitiveTypeChangedENS0_13PrimitiveTypeE@Qt_5 5.7.1~20161122
 _ZN10Qt3DRender17QGeometryRenderer20setRestartIndexValueEi@Qt_5 5.7.1~20161122
 _ZN10Qt3DRender17QGeometryRenderer23verticesPerPatchChangedEi@Qt_5 5.7.1~20161122
 _ZN10Qt3DRender17QGeometryRenderer24restartIndexValueChangedEi@Qt_5 5.7.1~20161122
 _ZN10Qt3DRender17QGeometryRenderer26setPrimitiveRestartEnabledEb@Qt_5 5.7.1~20161122
 _ZN10Qt3DRender17QGeometryRenderer30primitiveRestartEnabledChangedEb@Qt_5 5.7.1~20161122
 _ZN10Qt3DRender17QGeometryRendererC1EPN8Qt3DCore5QNodeE@Qt_5 5.7.1~20161122
 _ZN10Qt3DRender17QGeometryRendererC1ERNS_24QGeometryRendererPrivateEPN8Qt3DCore5QNodeE@Qt_5 5.7.1~20161122
 _ZN10Qt3DRender17QGeometryRendererC2EPN8Qt3DCore5QNodeE@Qt_5 5.7.1~20161122
 _ZN10Qt3DRender17QGeometryRendererC2ERNS_24QGeometryRendererPrivateEPN8Qt3DCore5QNodeE@Qt_5 5.7.1~20161122
 _ZN10Qt3DRender17QGeometryRendererD0Ev@Qt_5 5.7.1~20161122
 _ZN10Qt3DRender17QGeometryRendererD1Ev@Qt_5 5.7.1~20161122
 _ZN10Qt3DRender17QGeometryRendererD2Ev@Qt_5 5.7.1~20161122
 _ZN10Qt3DRender17QParameterPrivate8setValueERK8QVariant@Qt_5 5.7.1~20161122
 _ZN10Qt3DRender17QParameterPrivateC1Ev@Qt_5 5.7.1~20161122
 _ZN10Qt3DRender17QParameterPrivateC2Ev@Qt_5 5.7.1~20161122
 _ZN10Qt3DRender17QPickEventPrivate3getEPNS_10QPickEventE@Qt_5 5.9.0
 _ZN10Qt3DRender17QRenderPassFilter11qt_metacallEN11QMetaObject4CallEiPPv@Qt_5 5.7.1~20161122
 _ZN10Qt3DRender17QRenderPassFilter11qt_metacastEPKc@Qt_5 5.7.1~20161122
 _ZN10Qt3DRender17QRenderPassFilter11removeMatchEPNS_10QFilterKeyE@Qt_5 5.7.1~20161122
 _ZN10Qt3DRender17QRenderPassFilter12addParameterEPNS_10QParameterE@Qt_5 5.7.1~20161122
 _ZN10Qt3DRender17QRenderPassFilter15removeParameterEPNS_10QParameterE@Qt_5 5.7.1~20161122
 _ZN10Qt3DRender17QRenderPassFilter16staticMetaObjectE@Qt_5 5.7.1~20161122
 _ZN10Qt3DRender17QRenderPassFilter8addMatchEPNS_10QFilterKeyE@Qt_5 5.7.1~20161122
 _ZN10Qt3DRender17QRenderPassFilterC1EPN8Qt3DCore5QNodeE@Qt_5 5.7.1~20161122
 _ZN10Qt3DRender17QRenderPassFilterC1ERNS_24QRenderPassFilterPrivateEPN8Qt3DCore5QNodeE@Qt_5 5.7.1~20161122
 _ZN10Qt3DRender17QRenderPassFilterC2EPN8Qt3DCore5QNodeE@Qt_5 5.7.1~20161122
 _ZN10Qt3DRender17QRenderPassFilterC2ERNS_24QRenderPassFilterPrivateEPN8Qt3DCore5QNodeE@Qt_5 5.7.1~20161122
 _ZN10Qt3DRender17QRenderPassFilterD0Ev@Qt_5 5.7.1~20161122
 _ZN10Qt3DRender17QRenderPassFilterD1Ev@Qt_5 5.7.1~20161122
 _ZN10Qt3DRender17QRenderPassFilterD2Ev@Qt_5 5.7.1~20161122
 _ZN10Qt3DRender17QSpotLightPrivateC1Ev@Qt_5 5.9.1
 _ZN10Qt3DRender17QSpotLightPrivateC2Ev@Qt_5 5.9.1
 _ZN10Qt3DRender17QStencilOperation11qt_metacallEN11QMetaObject4CallEiPPv@Qt_5 5.7.1~20161122
 _ZN10Qt3DRender17QStencilOperation11qt_metacastEPKc@Qt_5 5.7.1~20161122
 _ZN10Qt3DRender17QStencilOperation16staticMetaObjectE@Qt_5 5.7.1~20161122
 _ZN10Qt3DRender17QStencilOperationC1EPN8Qt3DCore5QNodeE@Qt_5 5.7.1~20161122
 _ZN10Qt3DRender17QStencilOperationC2EPN8Qt3DCore5QNodeE@Qt_5 5.7.1~20161122
 _ZN10Qt3DRender17QStencilOperationD0Ev@Qt_5 5.7.1~20161122
 _ZN10Qt3DRender17QStencilOperationD1Ev@Qt_5 5.7.1~20161122
 _ZN10Qt3DRender17QStencilOperationD2Ev@Qt_5 5.7.1~20161122
 _ZN10Qt3DRender17QTextureGeneratorD0Ev@Qt_5 5.7.1~20161122
 _ZN10Qt3DRender17QTextureGeneratorD1Ev@Qt_5 5.7.1~20161122
 _ZN10Qt3DRender17QTextureGeneratorD2Ev@Qt_5 5.7.1~20161122
 _ZN10Qt3DRender17QTextureImageData12setMipLevelsEi@Qt_5 5.7.1~20161122
 _ZN10Qt3DRender17QTextureImageData12setPixelTypeEN14QOpenGLTexture9PixelTypeE@Qt_5 5.7.1~20161122
 _ZN10Qt3DRender17QTextureImageData14setPixelFormatEN14QOpenGLTexture11PixelFormatE@Qt_5 5.7.1~20161122
 _ZN10Qt3DRender17QTextureImageData7cleanupEv@Qt_5 5.7.1~20161122
 _ZN10Qt3DRender17QTextureImageData7setDataERK10QByteArrayib@Qt_5 5.7.1~20161122
 _ZN10Qt3DRender17QTextureImageData8setDepthEi@Qt_5 5.7.1~20161122
 _ZN10Qt3DRender17QTextureImageData8setFacesEi@Qt_5 5.7.1~20161122
 _ZN10Qt3DRender17QTextureImageData8setImageERK6QImage@Qt_5 5.7.1~20161122
 _ZN10Qt3DRender17QTextureImageData8setWidthEi@Qt_5 5.7.1~20161122
 _ZN10Qt3DRender17QTextureImageData9setFormatEN14QOpenGLTexture13TextureFormatE@Qt_5 5.7.1~20161122
 _ZN10Qt3DRender17QTextureImageData9setHeightEi@Qt_5 5.7.1~20161122
 _ZN10Qt3DRender17QTextureImageData9setLayersEi@Qt_5 5.7.1~20161122
 _ZN10Qt3DRender17QTextureImageData9setTargetEN14QOpenGLTexture6TargetE@Qt_5 5.7.1~20161122
 _ZN10Qt3DRender17QTextureImageDataC1ERNS_24QTextureImageDataPrivateE@Qt_5 5.7.1~20161122
 _ZN10Qt3DRender17QTextureImageDataC1Ev@Qt_5 5.7.1~20161122
 _ZN10Qt3DRender17QTextureImageDataC2ERNS_24QTextureImageDataPrivateE@Qt_5 5.7.1~20161122
 _ZN10Qt3DRender17QTextureImageDataC2Ev@Qt_5 5.7.1~20161122
 _ZN10Qt3DRender17QTextureImageDataD1Ev@Qt_5 5.7.1~20161122
 _ZN10Qt3DRender17QTextureImageDataD2Ev@Qt_5 5.7.1~20161122
 _ZN10Qt3DRender17QTextureImageDataaSERKS0_@Qt_5 5.7.1~20161122
 _ZN10Qt3DRender17QTextureRectangle11qt_metacallEN11QMetaObject4CallEiPPv@Qt_5 5.7.1~20161122
 _ZN10Qt3DRender17QTextureRectangle11qt_metacastEPKc@Qt_5 5.7.1~20161122
 _ZN10Qt3DRender17QTextureRectangle16staticMetaObjectE@Qt_5 5.7.1~20161122
 _ZN10Qt3DRender17QTextureRectangleC1EPN8Qt3DCore5QNodeE@Qt_5 5.7.1~20161122
 _ZN10Qt3DRender17QTextureRectangleC2EPN8Qt3DCore5QNodeE@Qt_5 5.7.1~20161122
 _ZN10Qt3DRender17QTextureRectangleD0Ev@Qt_5 5.7.1~20161122
 _ZN10Qt3DRender17QTextureRectangleD1Ev@Qt_5 5.7.1~20161122
 _ZN10Qt3DRender17QTextureRectangleD2Ev@Qt_5 5.7.1~20161122
 _ZN10Qt3DRender18QCameraLensPrivateC1Ev@Qt_5 5.9.1
 _ZN10Qt3DRender18QCameraLensPrivateC2Ev@Qt_5 5.9.1
 _ZN10Qt3DRender18QGraphicsApiFilter10apiChangedENS0_3ApiE@Qt_5 5.7.1~20161122
 _ZN10Qt3DRender18QGraphicsApiFilter10setProfileENS0_13OpenGLProfileE@Qt_5 5.7.1~20161122
 _ZN10Qt3DRender18QGraphicsApiFilter11qt_metacallEN11QMetaObject4CallEiPPv@Qt_5 5.7.1~20161122
 _ZN10Qt3DRender18QGraphicsApiFilter11qt_metacastEPKc@Qt_5 5.7.1~20161122
 _ZN10Qt3DRender18QGraphicsApiFilter13setExtensionsERK11QStringList@Qt_5 5.7.1~20161122
 _ZN10Qt3DRender18QGraphicsApiFilter13vendorChangedERK7QString@Qt_5 5.7.1~20161122
 _ZN10Qt3DRender18QGraphicsApiFilter14profileChangedENS0_13OpenGLProfileE@Qt_5 5.7.1~20161122
 _ZN10Qt3DRender18QGraphicsApiFilter15setMajorVersionEi@Qt_5 5.7.1~20161122
 _ZN10Qt3DRender18QGraphicsApiFilter15setMinorVersionEi@Qt_5 5.7.1~20161122
 _ZN10Qt3DRender18QGraphicsApiFilter16staticMetaObjectE@Qt_5 5.7.1~20161122
 _ZN10Qt3DRender18QGraphicsApiFilter17extensionsChangedERK11QStringList@Qt_5 5.7.1~20161122
 _ZN10Qt3DRender18QGraphicsApiFilter19majorVersionChangedEi@Qt_5 5.7.1~20161122
 _ZN10Qt3DRender18QGraphicsApiFilter19minorVersionChangedEi@Qt_5 5.7.1~20161122
 _ZN10Qt3DRender18QGraphicsApiFilter24graphicsApiFilterChangedEv@Qt_5 5.7.1~20161122
 _ZN10Qt3DRender18QGraphicsApiFilter6setApiENS0_3ApiE@Qt_5 5.7.1~20161122
 _ZN10Qt3DRender18QGraphicsApiFilter9setVendorERK7QString@Qt_5 5.7.1~20161122
 _ZN10Qt3DRender18QGraphicsApiFilterC1EP7QObject@Qt_5 5.7.1~20161122
 _ZN10Qt3DRender18QGraphicsApiFilterC2EP7QObject@Qt_5 5.7.1~20161122
 _ZN10Qt3DRender18QGraphicsApiFilterD0Ev@Qt_5 5.7.1~20161122
 _ZN10Qt3DRender18QGraphicsApiFilterD1Ev@Qt_5 5.7.1~20161122
 _ZN10Qt3DRender18QGraphicsApiFilterD2Ev@Qt_5 5.7.1~20161122
 _ZN10Qt3DRender18QPickTriangleEvent11qt_metacallEN11QMetaObject4CallEiPPv@Qt_5 5.7.1~20161122
 _ZN10Qt3DRender18QPickTriangleEvent11qt_metacastEPKc@Qt_5 5.7.1~20161122
 _ZN10Qt3DRender18QPickTriangleEvent16staticMetaObjectE@Qt_5 5.7.1~20161122
 _ZN10Qt3DRender18QPickTriangleEventC1ERK7QPointFRK9QVector3DS6_fjjjj@Qt_5 5.7.1~20161122
 _ZN10Qt3DRender18QPickTriangleEventC1ERK7QPointFRK9QVector3DS6_fjjjjNS_10QPickEvent7ButtonsEiiS6_@Qt_5 5.9.0
 _ZN10Qt3DRender18QPickTriangleEventC1Ev@Qt_5 5.7.1~20161122
 _ZN10Qt3DRender18QPickTriangleEventC2ERK7QPointFRK9QVector3DS6_fjjjj@Qt_5 5.7.1~20161122
 _ZN10Qt3DRender18QPickTriangleEventC2ERK7QPointFRK9QVector3DS6_fjjjjNS_10QPickEvent7ButtonsEiiS6_@Qt_5 5.9.0
 _ZN10Qt3DRender18QPickTriangleEventC2Ev@Qt_5 5.7.1~20161122
 _ZN10Qt3DRender18QPickTriangleEventD0Ev@Qt_5 5.7.1~20161122
 _ZN10Qt3DRender18QPickTriangleEventD1Ev@Qt_5 5.7.1~20161122
 _ZN10Qt3DRender18QPickTriangleEventD2Ev@Qt_5 5.7.1~20161122
 _ZN10Qt3DRender18QPointLightPrivateC1Ev@Qt_5 5.9.1
 _ZN10Qt3DRender18QPointLightPrivateC2Ev@Qt_5 5.9.1
 _ZN10Qt3DRender18QSceneExportPlugin11qt_metacallEN11QMetaObject4CallEiPPv@Qt_5 5.9.0
 _ZN10Qt3DRender18QSceneExportPlugin11qt_metacastEPKc@Qt_5 5.9.0
 _ZN10Qt3DRender18QSceneExportPlugin16staticMetaObjectE@Qt_5 5.9.0
 _ZN10Qt3DRender18QSceneExportPlugin6createERK7QStringRK11QStringList@Qt_5 5.9.0
 _ZN10Qt3DRender18QSceneExportPluginC1EP7QObject@Qt_5 5.9.0
 _ZN10Qt3DRender18QSceneExportPluginC2EP7QObject@Qt_5 5.9.0
 _ZN10Qt3DRender18QSceneExportPluginD0Ev@Qt_5 5.9.0
 _ZN10Qt3DRender18QSceneExportPluginD1Ev@Qt_5 5.9.0
 _ZN10Qt3DRender18QSceneExportPluginD2Ev@Qt_5 5.9.0
 _ZN10Qt3DRender18QSceneImportPlugin11qt_metacallEN11QMetaObject4CallEiPPv@Qt_5 5.9.0
 _ZN10Qt3DRender18QSceneImportPlugin11qt_metacastEPKc@Qt_5 5.9.0
 _ZN10Qt3DRender18QSceneImportPlugin16staticMetaObjectE@Qt_5 5.9.0
 _ZN10Qt3DRender18QSceneImportPlugin6createERK7QStringRK11QStringList@Qt_5 5.9.0
 _ZN10Qt3DRender18QSceneImportPluginC1EP7QObject@Qt_5 5.9.0
 _ZN10Qt3DRender18QSceneImportPluginC2EP7QObject@Qt_5 5.9.0
 _ZN10Qt3DRender18QSceneImportPluginD0Ev@Qt_5 5.9.0
 _ZN10Qt3DRender18QSceneImportPluginD1Ev@Qt_5 5.9.0
 _ZN10Qt3DRender18QSceneImportPluginD2Ev@Qt_5 5.9.0
 _ZN10Qt3DRender18QShaderDataPrivateC1E14QSharedPointerINS_23PropertyReaderInterfaceEE@Qt_5 5.7.1~20161122
 _ZN10Qt3DRender18QShaderDataPrivateC1Ev@Qt_5 5.7.1~20161122
 _ZN10Qt3DRender18QShaderDataPrivateC2E14QSharedPointerINS_23PropertyReaderInterfaceEE@Qt_5 5.7.1~20161122
 _ZN10Qt3DRender18QShaderDataPrivateC2Ev@Qt_5 5.7.1~20161122
 _ZN10Qt3DRender19QRenderCaptureReply11qt_metacallEN11QMetaObject4CallEiPPv@Qt_5 5.9.0
 _ZN10Qt3DRender19QRenderCaptureReply11qt_metacastEPKc@Qt_5 5.9.0
 _ZN10Qt3DRender19QRenderCaptureReply15completeChangedEb@Qt_5 5.9.0
 _ZN10Qt3DRender19QRenderCaptureReply16staticMetaObjectE@Qt_5 5.9.0
 _ZN10Qt3DRender19QRenderCaptureReply9completedEv@Qt_5 5.9.0
 _ZN10Qt3DRender19QRenderCaptureReplyC1EP7QObject@Qt_5 5.9.0
 _ZN10Qt3DRender19QRenderCaptureReplyC2EP7QObject@Qt_5 5.9.0
 _ZN10Qt3DRender19QRenderStatePrivate3getEPKNS_12QRenderStateE@Qt_5 5.7.1~20161122
 _ZN10Qt3DRender19QRenderStatePrivate3getEPNS_12QRenderStateE@Qt_5 5.7.1~20161122
 _ZN10Qt3DRender19QRenderStatePrivateC1ENS_6Render9StateMaskE@Qt_5 5.7.1~20161122
 _ZN10Qt3DRender19QRenderStatePrivateC2ENS_6Render9StateMaskE@Qt_5 5.7.1~20161122
 _ZN10Qt3DRender19QRenderStatePrivateD0Ev@Qt_5 5.7.1~20161122
 _ZN10Qt3DRender19QRenderStatePrivateD1Ev@Qt_5 5.7.1~20161122
 _ZN10Qt3DRender19QRenderStatePrivateD2Ev@Qt_5 5.7.1~20161122
 _ZN10Qt3DRender19QRenderTargetOutput10setTextureEPNS_16QAbstractTextureE@Qt_5 5.7.1~20161122
 _ZN10Qt3DRender19QRenderTargetOutput11faceChangedENS_16QAbstractTexture11CubeMapFaceE@Qt_5 5.7.1~20161122
 _ZN10Qt3DRender19QRenderTargetOutput11qt_metacallEN11QMetaObject4CallEiPPv@Qt_5 5.7.1~20161122
 _ZN10Qt3DRender19QRenderTargetOutput11qt_metacastEPKc@Qt_5 5.7.1~20161122
 _ZN10Qt3DRender19QRenderTargetOutput11setMipLevelEi@Qt_5 5.7.1~20161122
 _ZN10Qt3DRender19QRenderTargetOutput12layerChangedEi@Qt_5 5.7.1~20161122
 _ZN10Qt3DRender19QRenderTargetOutput14textureChangedEPNS_16QAbstractTextureE@Qt_5 5.7.1~20161122
 _ZN10Qt3DRender19QRenderTargetOutput15mipLevelChangedEi@Qt_5 5.7.1~20161122
 _ZN10Qt3DRender19QRenderTargetOutput16staticMetaObjectE@Qt_5 5.7.1~20161122
 _ZN10Qt3DRender19QRenderTargetOutput18setAttachmentPointENS0_15AttachmentPointE@Qt_5 5.7.1~20161122
 _ZN10Qt3DRender19QRenderTargetOutput22attachmentPointChangedENS0_15AttachmentPointE@Qt_5 5.7.1~20161122
 _ZN10Qt3DRender19QRenderTargetOutput7setFaceENS_16QAbstractTexture11CubeMapFaceE@Qt_5 5.7.1~20161122
 _ZN10Qt3DRender19QRenderTargetOutput8setLayerEi@Qt_5 5.7.1~20161122
 _ZN10Qt3DRender19QRenderTargetOutputC1EPN8Qt3DCore5QNodeE@Qt_5 5.7.1~20161122
 _ZN10Qt3DRender19QRenderTargetOutputC1ERNS_26QRenderTargetOutputPrivateEPN8Qt3DCore5QNodeE@Qt_5 5.7.1~20161122
 _ZN10Qt3DRender19QRenderTargetOutputC2EPN8Qt3DCore5QNodeE@Qt_5 5.7.1~20161122
 _ZN10Qt3DRender19QRenderTargetOutputC2ERNS_26QRenderTargetOutputPrivateEPN8Qt3DCore5QNodeE@Qt_5 5.7.1~20161122
 _ZN10Qt3DRender19QRenderTargetOutputD0Ev@Qt_5 5.7.1~20161122
 _ZN10Qt3DRender19QRenderTargetOutputD1Ev@Qt_5 5.7.1~20161122
 _ZN10Qt3DRender19QRenderTargetOutputD2Ev@Qt_5 5.7.1~20161122
 _ZN10Qt3DRender19QSceneExportFactory4keysERK7QString@Qt_5 5.9.0
 _ZN10Qt3DRender19QSceneExportFactory6createERK7QStringRK11QStringListS3_@Qt_5 5.9.0
 _ZN10Qt3DRender19QSceneImportFactory4keysERK7QString@Qt_5 5.9.0
 _ZN10Qt3DRender19QSceneImportFactory6createERK7QStringRK11QStringListS3_@Qt_5 5.9.0
 _ZN10Qt3DRender19QSceneLoaderPrivate17populateEntityMapEPN8Qt3DCore7QEntityE@Qt_5 5.9.0
 _ZN10Qt3DRender19QSceneLoaderPrivate9setStatusENS_12QSceneLoader6StatusE@Qt_5 5.9.0
 _ZN10Qt3DRender19QSceneLoaderPrivateC1Ev@Qt_5 5.7.1~20161122
 _ZN10Qt3DRender19QSceneLoaderPrivateC2Ev@Qt_5 5.7.1~20161122
 _ZN10Qt3DRender19QStencilTestPrivate15resendArgumentsEv@Qt_5 5.9.2
 _ZN10Qt3DRender20QLevelOfDetailSwitch11qt_metacallEN11QMetaObject4CallEiPPv@Qt_5 5.9.0
 _ZN10Qt3DRender20QLevelOfDetailSwitch11qt_metacastEPKc@Qt_5 5.9.0
 _ZN10Qt3DRender20QLevelOfDetailSwitch16sceneChangeEventERK14QSharedPointerIN8Qt3DCore12QSceneChangeEE@Qt_5 5.9.0
 _ZN10Qt3DRender20QLevelOfDetailSwitch16staticMetaObjectE@Qt_5 5.9.0
 _ZN10Qt3DRender20QLevelOfDetailSwitchC1EPN8Qt3DCore5QNodeE@Qt_5 5.9.0
 _ZN10Qt3DRender20QLevelOfDetailSwitchC1ERNS_21QLevelOfDetailPrivateEPN8Qt3DCore5QNodeE@Qt_5 5.9.0
 _ZN10Qt3DRender20QLevelOfDetailSwitchC2EPN8Qt3DCore5QNodeE@Qt_5 5.9.0
 _ZN10Qt3DRender20QLevelOfDetailSwitchC2ERNS_21QLevelOfDetailPrivateEPN8Qt3DCore5QNodeE@Qt_5 5.9.0
 _ZN10Qt3DRender20QLevelOfDetailSwitchD0Ev@Qt_5 5.9.0
 _ZN10Qt3DRender20QLevelOfDetailSwitchD1Ev@Qt_5 5.9.0
 _ZN10Qt3DRender20QLevelOfDetailSwitchD2Ev@Qt_5 5.9.0
 _ZN10Qt3DRender20QObjectPickerPrivate10movedEventEPNS_10QPickEventE@Qt_5 5.9.1
 _ZN10Qt3DRender20QObjectPickerPrivate10setPressedEb@Qt_5 5.9.1
 _ZN10Qt3DRender20QObjectPickerPrivate12clickedEventEPNS_10QPickEventE@Qt_5 5.9.1
 _ZN10Qt3DRender20QObjectPickerPrivate12pressedEventEPNS_10QPickEventE@Qt_5 5.9.1
 _ZN10Qt3DRender20QObjectPickerPrivate13releasedEventEPNS_10QPickEventE@Qt_5 5.9.1
 _ZN10Qt3DRender20QObjectPickerPrivate14propagateEventEPNS_10QPickEventENS0_9EventTypeE@Qt_5 5.9.1
 _ZN10Qt3DRender20QObjectPickerPrivate16setContainsMouseEb@Qt_5 5.9.1
 _ZN10Qt3DRender20QPaintedTextureImage11qt_metacallEN11QMetaObject4CallEiPPv@Qt_5 5.9.0
 _ZN10Qt3DRender20QPaintedTextureImage11qt_metacastEPKc@Qt_5 5.9.0
 _ZN10Qt3DRender20QPaintedTextureImage11sizeChangedE5QSize@Qt_5 5.9.0
 _ZN10Qt3DRender20QPaintedTextureImage12widthChangedEi@Qt_5 5.9.0
 _ZN10Qt3DRender20QPaintedTextureImage13heightChangedEi@Qt_5 5.9.0
 _ZN10Qt3DRender20QPaintedTextureImage16staticMetaObjectE@Qt_5 5.9.0
 _ZN10Qt3DRender20QPaintedTextureImage6updateERK5QRect@Qt_5 5.9.0
 _ZN10Qt3DRender20QPaintedTextureImage7setSizeE5QSize@Qt_5 5.9.0
 _ZN10Qt3DRender20QPaintedTextureImage8setWidthEi@Qt_5 5.9.0
 _ZN10Qt3DRender20QPaintedTextureImage9setHeightEi@Qt_5 5.9.0
 _ZN10Qt3DRender20QPaintedTextureImageC1EPN8Qt3DCore5QNodeE@Qt_5 5.9.0
 _ZN10Qt3DRender20QPaintedTextureImageC2EPN8Qt3DCore5QNodeE@Qt_5 5.9.0
 _ZN10Qt3DRender20QPaintedTextureImageD0Ev@Qt_5 5.9.0
 _ZN10Qt3DRender20QPaintedTextureImageD1Ev@Qt_5 5.9.0
 _ZN10Qt3DRender20QPaintedTextureImageD2Ev@Qt_5 5.9.0
 _ZN10Qt3DRender20QRenderAspectPrivate11m_instancesE@Qt_5 5.9.0
 _ZN10Qt3DRender20QRenderAspectPrivate12m_pluginLockE@Qt_5 5.9.0
 _ZN10Qt3DRender20QRenderAspectPrivate14m_pluginConfigE@Qt_5 5.9.0
 _ZN10Qt3DRender20QRenderAspectPrivate14renderShutdownEv@Qt_5 5.7.1~20161122
 _ZN10Qt3DRender20QRenderAspectPrivate15configurePluginERK7QString@Qt_5 5.9.0
 _ZN10Qt3DRender20QRenderAspectPrivate16loadRenderPluginERK7QString@Qt_5 5.9.0
 _ZN10Qt3DRender20QRenderAspectPrivate16loadSceneParsersEv@Qt_5 5.7.1~20161122
 _ZN10Qt3DRender20QRenderAspectPrivate16renderInitializeEP14QOpenGLContext@Qt_5 5.7.1~20161122
 _ZN10Qt3DRender20QRenderAspectPrivate17renderSynchronousEb@Qt_5 5.9.5
 _ZN10Qt3DRender20QRenderAspectPrivate19registerBackendTypeERK11QMetaObjectRK14QSharedPointerIN8Qt3DCore18QBackendNodeMapperEE@Qt_5 5.9.0
 _ZN10Qt3DRender20QRenderAspectPrivate20registerBackendTypesEv@Qt_5 5.7.1~20161122
 _ZN10Qt3DRender20QRenderAspectPrivate22unregisterBackendTypesEv@Qt_5 5.7.1~20161122
 _ZN10Qt3DRender20QRenderAspectPrivate26createGeometryRendererJobsEv@Qt_5 5.7.1~20161122
 _ZN10Qt3DRender20QRenderAspectPrivateC1ENS_13QRenderAspect10RenderTypeE@Qt_5 5.7.1~20161122
 _ZN10Qt3DRender20QRenderAspectPrivateC2ENS_13QRenderAspect10RenderTypeE@Qt_5 5.7.1~20161122
 _ZN10Qt3DRender20QRenderAspectPrivateD0Ev@Qt_5 5.7.1~20161122
 _ZN10Qt3DRender20QRenderAspectPrivateD1Ev@Qt_5 5.7.1~20161122
 _ZN10Qt3DRender20QRenderAspectPrivateD2Ev@Qt_5 5.7.1~20161122
 _ZN10Qt3DRender20QRenderTargetPrivateC1Ev@Qt_5 5.9.1
 _ZN10Qt3DRender20QRenderTargetPrivateC2Ev@Qt_5 5.9.1
 _ZN10Qt3DRender20QTextureCubeMapArray11qt_metacallEN11QMetaObject4CallEiPPv@Qt_5 5.7.1~20161122
 _ZN10Qt3DRender20QTextureCubeMapArray11qt_metacastEPKc@Qt_5 5.7.1~20161122
 _ZN10Qt3DRender20QTextureCubeMapArray16staticMetaObjectE@Qt_5 5.7.1~20161122
 _ZN10Qt3DRender20QTextureCubeMapArrayC1EPN8Qt3DCore5QNodeE@Qt_5 5.7.1~20161122
 _ZN10Qt3DRender20QTextureCubeMapArrayC2EPN8Qt3DCore5QNodeE@Qt_5 5.7.1~20161122
 _ZN10Qt3DRender20QTextureCubeMapArrayD0Ev@Qt_5 5.7.1~20161122
 _ZN10Qt3DRender20QTextureCubeMapArrayD1Ev@Qt_5 5.7.1~20161122
 _ZN10Qt3DRender20QTextureCubeMapArrayD2Ev@Qt_5 5.7.1~20161122
 _ZN10Qt3DRender21QAbstractLightPrivateC1ENS_14QAbstractLight4TypeE@Qt_5 5.9.1
 _ZN10Qt3DRender21QAbstractLightPrivateC2ENS_14QAbstractLight4TypeE@Qt_5 5.9.1
 _ZN10Qt3DRender21QAbstractLightPrivateD0Ev@Qt_5 5.9.1
 _ZN10Qt3DRender21QAbstractLightPrivateD1Ev@Qt_5 5.9.1
 _ZN10Qt3DRender21QAbstractLightPrivateD2Ev@Qt_5 5.9.1
 _ZN10Qt3DRender21QAbstractTextureImage11faceChangedENS_16QAbstractTexture11CubeMapFaceE@Qt_5 5.7.1~20161122
 _ZN10Qt3DRender21QAbstractTextureImage11qt_metacallEN11QMetaObject4CallEiPPv@Qt_5 5.7.1~20161122
 _ZN10Qt3DRender21QAbstractTextureImage11qt_metacastEPKc@Qt_5 5.7.1~20161122
 _ZN10Qt3DRender21QAbstractTextureImage11setMipLevelEi@Qt_5 5.7.1~20161122
 _ZN10Qt3DRender21QAbstractTextureImage12layerChangedEi@Qt_5 5.7.1~20161122
 _ZN10Qt3DRender21QAbstractTextureImage15mipLevelChangedEi@Qt_5 5.7.1~20161122
 _ZN10Qt3DRender21QAbstractTextureImage16staticMetaObjectE@Qt_5 5.7.1~20161122
 _ZN10Qt3DRender21QAbstractTextureImage26notifyDataGeneratorChangedEv@Qt_5 5.7.1~20161122
 _ZN10Qt3DRender21QAbstractTextureImage7setFaceENS_16QAbstractTexture11CubeMapFaceE@Qt_5 5.7.1~20161122
 _ZN10Qt3DRender21QAbstractTextureImage8setLayerEi@Qt_5 5.7.1~20161122
 _ZN10Qt3DRender21QAbstractTextureImageC1EPN8Qt3DCore5QNodeE@Qt_5 5.7.1~20161122
 _ZN10Qt3DRender21QAbstractTextureImageC1ERNS_28QAbstractTextureImagePrivateEPN8Qt3DCore5QNodeE@Qt_5 5.7.1~20161122
 _ZN10Qt3DRender21QAbstractTextureImageC2EPN8Qt3DCore5QNodeE@Qt_5 5.7.1~20161122
 _ZN10Qt3DRender21QAbstractTextureImageC2ERNS_28QAbstractTextureImagePrivateEPN8Qt3DCore5QNodeE@Qt_5 5.7.1~20161122
 _ZN10Qt3DRender21QAbstractTextureImageD0Ev@Qt_5 5.7.1~20161122
 _ZN10Qt3DRender21QAbstractTextureImageD1Ev@Qt_5 5.7.1~20161122
 _ZN10Qt3DRender21QAbstractTextureImageD2Ev@Qt_5 5.7.1~20161122
 _ZN10Qt3DRender21QLevelOfDetailPrivateC1Ev@Qt_5 5.9.1
 _ZN10Qt3DRender21QLevelOfDetailPrivateC2Ev@Qt_5 5.9.1
 _ZN10Qt3DRender21QRenderTargetSelector10setOutputsERK7QVectorINS_19QRenderTargetOutput15AttachmentPointEE@Qt_5 5.7.1~20161122
 _ZN10Qt3DRender21QRenderTargetSelector11qt_metacallEN11QMetaObject4CallEiPPv@Qt_5 5.7.1~20161122
 _ZN10Qt3DRender21QRenderTargetSelector11qt_metacastEPKc@Qt_5 5.7.1~20161122
 _ZN10Qt3DRender21QRenderTargetSelector13targetChangedEPNS_13QRenderTargetE@Qt_5 5.7.1~20161122
 _ZN10Qt3DRender21QRenderTargetSelector16staticMetaObjectE@Qt_5 5.7.1~20161122
 _ZN10Qt3DRender21QRenderTargetSelector9setTargetEPNS_13QRenderTargetE@Qt_5 5.7.1~20161122
 _ZN10Qt3DRender21QRenderTargetSelectorC1EPN8Qt3DCore5QNodeE@Qt_5 5.7.1~20161122
 _ZN10Qt3DRender21QRenderTargetSelectorC1ERNS_28QRenderTargetSelectorPrivateEPN8Qt3DCore5QNodeE@Qt_5 5.7.1~20161122
 _ZN10Qt3DRender21QRenderTargetSelectorC2EPN8Qt3DCore5QNodeE@Qt_5 5.7.1~20161122
 _ZN10Qt3DRender21QRenderTargetSelectorC2ERNS_28QRenderTargetSelectorPrivateEPN8Qt3DCore5QNodeE@Qt_5 5.7.1~20161122
 _ZN10Qt3DRender21QRenderTargetSelectorD0Ev@Qt_5 5.7.1~20161122
 _ZN10Qt3DRender21QRenderTargetSelectorD1Ev@Qt_5 5.7.1~20161122
 _ZN10Qt3DRender21QRenderTargetSelectorD2Ev@Qt_5 5.7.1~20161122
 _ZN10Qt3DRender21QStencilTestArguments11qt_metacallEN11QMetaObject4CallEiPPv@Qt_5 5.7.1~20161122
 _ZN10Qt3DRender21QStencilTestArguments11qt_metacastEPKc@Qt_5 5.7.1~20161122
 _ZN10Qt3DRender21QStencilTestArguments15faceModeChangedENS0_15StencilFaceModeE@Qt_5 5.7.1~20161122
 _ZN10Qt3DRender21QStencilTestArguments16staticMetaObjectE@Qt_5 5.7.1~20161122
 _ZN10Qt3DRender21QStencilTestArguments17setComparisonMaskEj@Qt_5 5.7.1~20161122
 _ZN10Qt3DRender21QStencilTestArguments17setReferenceValueEi@Qt_5 5.7.1~20161122
 _ZN10Qt3DRender21QStencilTestArguments18setStencilFunctionENS0_15StencilFunctionE@Qt_5 5.7.1~20161122
 _ZN10Qt3DRender21QStencilTestArguments21comparisonMaskChangedEj@Qt_5 5.7.1~20161122
 _ZN10Qt3DRender21QStencilTestArguments21referenceValueChangedEi@Qt_5 5.7.1~20161122
 _ZN10Qt3DRender21QStencilTestArguments22stencilFunctionChangedENS0_15StencilFunctionE@Qt_5 5.7.1~20161122
 _ZN10Qt3DRender21QStencilTestArgumentsC1ENS0_15StencilFaceModeEP7QObject@Qt_5 5.7.1~20161122
 _ZN10Qt3DRender21QStencilTestArgumentsC2ENS0_15StencilFaceModeEP7QObject@Qt_5 5.7.1~20161122
 _ZN10Qt3DRender21QStencilTestArgumentsD0Ev@Qt_5 5.7.1~20161122
 _ZN10Qt3DRender21QStencilTestArgumentsD1Ev@Qt_5 5.7.1~20161122
 _ZN10Qt3DRender21QStencilTestArgumentsD2Ev@Qt_5 5.7.1~20161122
 _ZN10Qt3DRender21QTexture2DMultisample11qt_metacallEN11QMetaObject4CallEiPPv@Qt_5 5.7.1~20161122
 _ZN10Qt3DRender21QTexture2DMultisample11qt_metacastEPKc@Qt_5 5.7.1~20161122
 _ZN10Qt3DRender21QTexture2DMultisample16staticMetaObjectE@Qt_5 5.7.1~20161122
 _ZN10Qt3DRender21QTexture2DMultisampleC1EPN8Qt3DCore5QNodeE@Qt_5 5.7.1~20161122
 _ZN10Qt3DRender21QTexture2DMultisampleC2EPN8Qt3DCore5QNodeE@Qt_5 5.7.1~20161122
 _ZN10Qt3DRender21QTexture2DMultisampleD0Ev@Qt_5 5.7.1~20161122
 _ZN10Qt3DRender21QTexture2DMultisampleD1Ev@Qt_5 5.7.1~20161122
 _ZN10Qt3DRender21QTexture2DMultisampleD2Ev@Qt_5 5.7.1~20161122
 _ZN10Qt3DRender21QTextureLoaderPrivate15updateGeneratorEv@Qt_5 5.9.1
 _ZN10Qt3DRender21QTextureLoaderPrivateC1Ev@Qt_5 5.9.1
 _ZN10Qt3DRender21QTextureLoaderPrivateC2Ev@Qt_5 5.9.1
 _ZN10Qt3DRender22QComputeCommandPrivateC1Ev@Qt_5 5.9.1
 _ZN10Qt3DRender22QComputeCommandPrivateC2Ev@Qt_5 5.9.1
 _ZN10Qt3DRender22QGeometryLoaderFactory11qt_metacallEN11QMetaObject4CallEiPPv@Qt_5 5.9.0
 _ZN10Qt3DRender22QGeometryLoaderFactory11qt_metacastEPKc@Qt_5 5.9.0
 _ZN10Qt3DRender22QGeometryLoaderFactory16staticMetaObjectE@Qt_5 5.9.0
 _ZN10Qt3DRender22QGeometryLoaderFactoryC1EP7QObject@Qt_5 5.9.0
 _ZN10Qt3DRender22QGeometryLoaderFactoryC2EP7QObject@Qt_5 5.9.0
 _ZN10Qt3DRender22QGeometryLoaderFactoryD0Ev@Qt_5 5.9.0
 _ZN10Qt3DRender22QGeometryLoaderFactoryD1Ev@Qt_5 5.9.0
 _ZN10Qt3DRender22QGeometryLoaderFactoryD2Ev@Qt_5 5.9.0
 _ZN10Qt3DRender22QRenderSettingsPrivate25_q_onPickingMethodChangedENS_16QPickingSettings10PickMethodE@Qt_5 5.9.1
 _ZN10Qt3DRender22QRenderSettingsPrivate26_q_onPickResultModeChangedENS_16QPickingSettings14PickResultModeE@Qt_5 5.9.1
 _ZN10Qt3DRender22QRenderSettingsPrivate38_q_onFaceOrientationPickingModeChangedENS_16QPickingSettings26FaceOrientationPickingModeE@Qt_5 5.9.1
 _ZN10Qt3DRender22QRenderSettingsPrivate4initEv@Qt_5 5.9.1
 _ZN10Qt3DRender22QRenderSettingsPrivateC1Ev@Qt_5 5.9.1
 _ZN10Qt3DRender22QRenderSettingsPrivateC2Ev@Qt_5 5.9.1
 _ZN10Qt3DRender22QRenderSurfaceSelector10setSurfaceEP7QObject@Qt_5 5.7.1~20161122
 _ZN10Qt3DRender22QRenderSurfaceSelector11qt_metacallEN11QMetaObject4CallEiPPv@Qt_5 5.7.1~20161122
 _ZN10Qt3DRender22QRenderSurfaceSelector11qt_metacastEPKc@Qt_5 5.7.1~20161122
 _ZN10Qt3DRender22QRenderSurfaceSelector14surfaceChangedEP7QObject@Qt_5 5.7.1~20161122
 _ZN10Qt3DRender22QRenderSurfaceSelector16staticMetaObjectE@Qt_5 5.7.1~20161122
 _ZN10Qt3DRender22QRenderSurfaceSelector20setSurfacePixelRatioEf@Qt_5 5.7.1~20161122
 _ZN10Qt3DRender22QRenderSurfaceSelector24surfacePixelRatioChangedEf@Qt_5 5.7.1~20161122
 _ZN10Qt3DRender22QRenderSurfaceSelector27setExternalRenderTargetSizeERK5QSize@Qt_5 5.7.1~20161122
 _ZN10Qt3DRender22QRenderSurfaceSelector31externalRenderTargetSizeChangedERK5QSize@Qt_5 5.7.1~20161122
 _ZN10Qt3DRender22QRenderSurfaceSelectorC1EPN8Qt3DCore5QNodeE@Qt_5 5.7.1~20161122
 _ZN10Qt3DRender22QRenderSurfaceSelectorC1ERNS_29QRenderSurfaceSelectorPrivateEPN8Qt3DCore5QNodeE@Qt_5 5.7.1~20161122
 _ZN10Qt3DRender22QRenderSurfaceSelectorC2EPN8Qt3DCore5QNodeE@Qt_5 5.7.1~20161122
 _ZN10Qt3DRender22QRenderSurfaceSelectorC2ERNS_29QRenderSurfaceSelectorPrivateEPN8Qt3DCore5QNodeE@Qt_5 5.7.1~20161122
 _ZN10Qt3DRender22QRenderSurfaceSelectorD0Ev@Qt_5 5.7.1~20161122
 _ZN10Qt3DRender22QRenderSurfaceSelectorD1Ev@Qt_5 5.7.1~20161122
 _ZN10Qt3DRender22QRenderSurfaceSelectorD2Ev@Qt_5 5.7.1~20161122
 _ZN10Qt3DRender23PropertyReaderInterfaceD0Ev@Qt_5 5.7.1~20161122
 _ZN10Qt3DRender23PropertyReaderInterfaceD1Ev@Qt_5 5.7.1~20161122
 _ZN10Qt3DRender23PropertyReaderInterfaceD2Ev@Qt_5 5.7.1~20161122
 _ZN10Qt3DRender23QAbstractTexturePrivate14setDataFunctorERK14QSharedPointerINS_17QTextureGeneratorEE@Qt_5 5.9.0
 _ZN10Qt3DRender23QAbstractTexturePrivateC1Ev@Qt_5 5.9.0
 _ZN10Qt3DRender23QAbstractTexturePrivateC2Ev@Qt_5 5.9.0
 _ZN10Qt3DRender23QAxisAlignedBoundingBox6updateERK7QVectorI9QVector3DE@Qt_5 5.9.0
 _ZN10Qt3DRender23QBlendEquationArguments11qt_metacallEN11QMetaObject4CallEiPPv@Qt_5 5.7.1~20161122
 _ZN10Qt3DRender23QBlendEquationArguments11qt_metacastEPKc@Qt_5 5.7.1~20161122
 _ZN10Qt3DRender23QBlendEquationArguments12setSourceRgbENS0_8BlendingE@Qt_5 5.7.1~20161122
 _ZN10Qt3DRender23QBlendEquationArguments13setSourceRgbaENS0_8BlendingE@Qt_5 5.7.1~20161122
 _ZN10Qt3DRender23QBlendEquationArguments14setBufferIndexEi@Qt_5 5.7.1~20161122
 _ZN10Qt3DRender23QBlendEquationArguments14setSourceAlphaENS0_8BlendingE@Qt_5 5.7.1~20161122
 _ZN10Qt3DRender23QBlendEquationArguments16sourceRgbChangedENS0_8BlendingE@Qt_5 5.7.1~20161122
 _ZN10Qt3DRender23QBlendEquationArguments16staticMetaObjectE@Qt_5 5.7.1~20161122
 _ZN10Qt3DRender23QBlendEquationArguments17setDestinationRgbENS0_8BlendingE@Qt_5 5.7.1~20161122
 _ZN10Qt3DRender23QBlendEquationArguments17sourceRgbaChangedENS0_8BlendingE@Qt_5 5.7.1~20161122
 _ZN10Qt3DRender23QBlendEquationArguments18bufferIndexChangedEi@Qt_5 5.7.1~20161122
 _ZN10Qt3DRender23QBlendEquationArguments18setDestinationRgbaENS0_8BlendingE@Qt_5 5.7.1~20161122
 _ZN10Qt3DRender23QBlendEquationArguments18sourceAlphaChangedENS0_8BlendingE@Qt_5 5.7.1~20161122
 _ZN10Qt3DRender23QBlendEquationArguments19setDestinationAlphaENS0_8BlendingE@Qt_5 5.7.1~20161122
 _ZN10Qt3DRender23QBlendEquationArguments21destinationRgbChangedENS0_8BlendingE@Qt_5 5.7.1~20161122
 _ZN10Qt3DRender23QBlendEquationArguments22destinationRgbaChangedENS0_8BlendingE@Qt_5 5.7.1~20161122
 _ZN10Qt3DRender23QBlendEquationArguments23destinationAlphaChangedENS0_8BlendingE@Qt_5 5.7.1~20161122
 _ZN10Qt3DRender23QBlendEquationArgumentsC1EPN8Qt3DCore5QNodeE@Qt_5 5.7.1~20161122
 _ZN10Qt3DRender23QBlendEquationArgumentsC1ERNS_30QBlendEquationArgumentsPrivateEPN8Qt3DCore5QNodeE@Qt_5 5.7.1~20161122
 _ZN10Qt3DRender23QBlendEquationArgumentsC2EPN8Qt3DCore5QNodeE@Qt_5 5.7.1~20161122
 _ZN10Qt3DRender23QBlendEquationArgumentsC2ERNS_30QBlendEquationArgumentsPrivateEPN8Qt3DCore5QNodeE@Qt_5 5.7.1~20161122
 _ZN10Qt3DRender23QBlendEquationArgumentsD0Ev@Qt_5 5.7.1~20161122
 _ZN10Qt3DRender23QBlendEquationArgumentsD1Ev@Qt_5 5.7.1~20161122
 _ZN10Qt3DRender23QBlendEquationArgumentsD2Ev@Qt_5 5.7.1~20161122
 _ZN10Qt3DRender23QPickingSettingsPrivateC1Ev@Qt_5 5.9.1
 _ZN10Qt3DRender23QPickingSettingsPrivateC2Ev@Qt_5 5.9.1
 _ZN10Qt3DRender23QTechniqueFilterPrivateC1Ev@Qt_5 5.7.1~20161122
 _ZN10Qt3DRender23QTechniqueFilterPrivateC2Ev@Qt_5 5.7.1~20161122
 _ZN10Qt3DRender24QDirectionalLightPrivateC1Ev@Qt_5 5.9.1
 _ZN10Qt3DRender24QDirectionalLightPrivateC2Ev@Qt_5 5.9.1
 _ZN10Qt3DRender24QEnvironmentLightPrivateC1Ev@Qt_5 5.9.1
 _ZN10Qt3DRender24QEnvironmentLightPrivateC2Ev@Qt_5 5.9.1
 _ZN10Qt3DRender24QEnvironmentLightPrivateD0Ev@Qt_5 5.9.1
 _ZN10Qt3DRender24QEnvironmentLightPrivateD1Ev@Qt_5 5.9.1
 _ZN10Qt3DRender24QEnvironmentLightPrivateD2Ev@Qt_5 5.9.1
 _ZN10Qt3DRender24QGeometryRendererPrivateC1Ev@Qt_5 5.9.1
 _ZN10Qt3DRender24QGeometryRendererPrivateC2Ev@Qt_5 5.9.1
 _ZN10Qt3DRender24QGeometryRendererPrivateD0Ev@Qt_5 5.9.1
 _ZN10Qt3DRender24QGeometryRendererPrivateD1Ev@Qt_5 5.9.1
 _ZN10Qt3DRender24QGeometryRendererPrivateD2Ev@Qt_5 5.9.1
 _ZN10Qt3DRender24QMultiSampleAntiAliasing11qt_metacallEN11QMetaObject4CallEiPPv@Qt_5 5.7.1~20161122
 _ZN10Qt3DRender24QMultiSampleAntiAliasing11qt_metacastEPKc@Qt_5 5.7.1~20161122
 _ZN10Qt3DRender24QMultiSampleAntiAliasing16staticMetaObjectE@Qt_5 5.7.1~20161122
 _ZN10Qt3DRender24QMultiSampleAntiAliasingC1EPN8Qt3DCore5QNodeE@Qt_5 5.7.1~20161122
 _ZN10Qt3DRender24QMultiSampleAntiAliasingC2EPN8Qt3DCore5QNodeE@Qt_5 5.7.1~20161122
 _ZN10Qt3DRender24QMultiSampleAntiAliasingD0Ev@Qt_5 5.7.1~20161122
 _ZN10Qt3DRender24QMultiSampleAntiAliasingD1Ev@Qt_5 5.7.1~20161122
 _ZN10Qt3DRender24QMultiSampleAntiAliasingD2Ev@Qt_5 5.7.1~20161122
 _ZN10Qt3DRender24QStencilOperationPrivate15resendArgumentsEv@Qt_5 5.9.2
 _ZN10Qt3DRender25QGraphicsApiFilterPrivate3getEPNS_18QGraphicsApiFilterE@Qt_5 5.9.1
 _ZN10Qt3DRender26QRenderTargetOutputPrivateC1Ev@Qt_5 5.9.1
 _ZN10Qt3DRender26QRenderTargetOutputPrivateC2Ev@Qt_5 5.9.1
 _ZN10Qt3DRender26QStencilOperationArguments11qt_metacallEN11QMetaObject4CallEiPPv@Qt_5 5.7.1~20161122
 _ZN10Qt3DRender26QStencilOperationArguments11qt_metacastEPKc@Qt_5 5.7.1~20161122
 _ZN10Qt3DRender26QStencilOperationArguments15faceModeChangedENS0_8FaceModeE@Qt_5 5.7.1~20161122
 _ZN10Qt3DRender26QStencilOperationArguments16staticMetaObjectE@Qt_5 5.7.1~20161122
 _ZN10Qt3DRender26QStencilOperationArguments24setAllTestsPassOperationENS0_9OperationE@Qt_5 5.7.1~20161122
 _ZN10Qt3DRender26QStencilOperationArguments28allTestsPassOperationChangedENS0_9OperationE@Qt_5 5.7.1~20161122
 _ZN10Qt3DRender26QStencilOperationArguments28setDepthTestFailureOperationENS0_9OperationE@Qt_5 5.7.1~20161122
 _ZN10Qt3DRender26QStencilOperationArguments30setStencilTestFailureOperationENS0_9OperationE@Qt_5 5.7.1~20161122
 _ZN10Qt3DRender26QStencilOperationArguments32depthTestFailureOperationChangedENS0_9OperationE@Qt_5 5.7.1~20161122
 _ZN10Qt3DRender26QStencilOperationArguments34stencilTestFailureOperationChangedENS0_9OperationE@Qt_5 5.7.1~20161122
 _ZN10Qt3DRender26QStencilOperationArgumentsC1ENS0_8FaceModeEP7QObject@Qt_5 5.7.1~20161122
 _ZN10Qt3DRender26QStencilOperationArgumentsC2ENS0_8FaceModeEP7QObject@Qt_5 5.7.1~20161122
 _ZN10Qt3DRender26QStencilOperationArgumentsD0Ev@Qt_5 5.7.1~20161122
 _ZN10Qt3DRender26QStencilOperationArgumentsD1Ev@Qt_5 5.7.1~20161122
 _ZN10Qt3DRender26QStencilOperationArgumentsD2Ev@Qt_5 5.7.1~20161122
 _ZN10Qt3DRender26QTexture2DMultisampleArray11qt_metacallEN11QMetaObject4CallEiPPv@Qt_5 5.7.1~20161122
 _ZN10Qt3DRender26QTexture2DMultisampleArray11qt_metacastEPKc@Qt_5 5.7.1~20161122
 _ZN10Qt3DRender26QTexture2DMultisampleArray16staticMetaObjectE@Qt_5 5.7.1~20161122
 _ZN10Qt3DRender26QTexture2DMultisampleArrayC1EPN8Qt3DCore5QNodeE@Qt_5 5.7.1~20161122
 _ZN10Qt3DRender26QTexture2DMultisampleArrayC2EPN8Qt3DCore5QNodeE@Qt_5 5.7.1~20161122
 _ZN10Qt3DRender26QTexture2DMultisampleArrayD0Ev@Qt_5 5.7.1~20161122
 _ZN10Qt3DRender26QTexture2DMultisampleArrayD1Ev@Qt_5 5.7.1~20161122
 _ZN10Qt3DRender26QTexture2DMultisampleArrayD2Ev@Qt_5 5.7.1~20161122
 _ZN10Qt3DRender27QPaintedTextureImagePrivate7repaintEv@Qt_5 5.9.1
 _ZN10Qt3DRender27QPaintedTextureImagePrivateC1Ev@Qt_5 5.9.1
 _ZN10Qt3DRender27QPaintedTextureImagePrivateC2Ev@Qt_5 5.9.1
 _ZN10Qt3DRender27QPaintedTextureImagePrivateD0Ev@Qt_5 5.9.1
 _ZN10Qt3DRender27QPaintedTextureImagePrivateD1Ev@Qt_5 5.9.1
 _ZN10Qt3DRender27QPaintedTextureImagePrivateD2Ev@Qt_5 5.9.1
 _ZN10Qt3DRender28QAbstractTextureImagePrivateC1Ev@Qt_5 5.7.1~20161122
 _ZN10Qt3DRender28QAbstractTextureImagePrivateC2Ev@Qt_5 5.7.1~20161122
 _ZN10Qt3DRender28QAbstractTextureImagePrivateD0Ev@Qt_5 5.7.1~20161122
 _ZN10Qt3DRender28QAbstractTextureImagePrivateD1Ev@Qt_5 5.7.1~20161122
 _ZN10Qt3DRender28QAbstractTextureImagePrivateD2Ev@Qt_5 5.7.1~20161122
 _ZN10Qt3DRender28QLevelOfDetailBoundingSphere16staticMetaObjectE@Qt_5 5.9.0
 _ZN10Qt3DRender28QLevelOfDetailBoundingSphereC1E9QVector3Df@Qt_5 5.9.0
 _ZN10Qt3DRender28QLevelOfDetailBoundingSphereC1ERKS0_@Qt_5 5.9.0
 _ZN10Qt3DRender28QLevelOfDetailBoundingSphereC2E9QVector3Df@Qt_5 5.9.0
 _ZN10Qt3DRender28QLevelOfDetailBoundingSphereC2ERKS0_@Qt_5 5.9.0
 _ZN10Qt3DRender28QLevelOfDetailBoundingSphereD1Ev@Qt_5 5.9.0
 _ZN10Qt3DRender28QLevelOfDetailBoundingSphereD2Ev@Qt_5 5.9.0
 _ZN10Qt3DRender28QLevelOfDetailBoundingSphereaSERKS0_@Qt_5 5.9.0
 _ZN10Qt3DRender29QRenderSurfaceSelectorPrivate27setExternalRenderTargetSizeERK5QSize@Qt_5 5.7.1~20161122
 _ZN10Qt3DRender29QRenderSurfaceSelectorPrivate4findEP7QObject@Qt_5 5.7.1~20161122
 _ZN10Qt3DRender29QRenderSurfaceSelectorPrivateC1Ev@Qt_5 5.7.1~20161122
 _ZN10Qt3DRender29QRenderSurfaceSelectorPrivateC2Ev@Qt_5 5.7.1~20161122
 _ZN10Qt3DRender29QRenderSurfaceSelectorPrivateD0Ev@Qt_5 5.7.1~20161122
 _ZN10Qt3DRender29QRenderSurfaceSelectorPrivateD1Ev@Qt_5 5.7.1~20161122
 _ZN10Qt3DRender29QRenderSurfaceSelectorPrivateD2Ev@Qt_5 5.7.1~20161122
 _ZN10Qt3DRender32QFrameGraphNodeCreatedChangeBaseC1EPKNS_15QFrameGraphNodeE@Qt_5 5.9.0
 _ZN10Qt3DRender32QFrameGraphNodeCreatedChangeBaseC2EPKNS_15QFrameGraphNodeE@Qt_5 5.9.0
 _ZN10Qt3DRender32QFrameGraphNodeCreatedChangeBaseD0Ev@Qt_5 5.9.0
 _ZN10Qt3DRender32QFrameGraphNodeCreatedChangeBaseD1Ev@Qt_5 5.9.0
 _ZN10Qt3DRender32QFrameGraphNodeCreatedChangeBaseD2Ev@Qt_5 5.9.0
 _ZN10Qt3DRender5QMesh11qt_metacallEN11QMetaObject4CallEiPPv@Qt_5 5.7.1~20161122
 _ZN10Qt3DRender5QMesh11qt_metacastEPKc@Qt_5 5.7.1~20161122
 _ZN10Qt3DRender5QMesh11setMeshNameERK7QString@Qt_5 5.7.1~20161122
 _ZN10Qt3DRender5QMesh13sourceChangedERK4QUrl@Qt_5 5.7.1~20161122
 _ZN10Qt3DRender5QMesh15meshNameChangedERK7QString@Qt_5 5.7.1~20161122
 _ZN10Qt3DRender5QMesh16staticMetaObjectE@Qt_5 5.7.1~20161122
 _ZN10Qt3DRender5QMesh9setSourceERK4QUrl@Qt_5 5.7.1~20161122
 _ZN10Qt3DRender5QMeshC1EPN8Qt3DCore5QNodeE@Qt_5 5.7.1~20161122
 _ZN10Qt3DRender5QMeshC1ERNS_12QMeshPrivateEPN8Qt3DCore5QNodeE@Qt_5 5.7.1~20161122
 _ZN10Qt3DRender5QMeshC2EPN8Qt3DCore5QNodeE@Qt_5 5.7.1~20161122
 _ZN10Qt3DRender5QMeshC2ERNS_12QMeshPrivateEPN8Qt3DCore5QNodeE@Qt_5 5.7.1~20161122
 _ZN10Qt3DRender5QMeshD0Ev@Qt_5 5.7.1~20161122
 _ZN10Qt3DRender5QMeshD1Ev@Qt_5 5.7.1~20161122
 _ZN10Qt3DRender5QMeshD2Ev@Qt_5 5.7.1~20161122
 _ZN10Qt3DRender6QLayer11qt_metacallEN11QMetaObject4CallEiPPv@Qt_5 5.7.1~20161122
 _ZN10Qt3DRender6QLayer11qt_metacastEPKc@Qt_5 5.7.1~20161122
 _ZN10Qt3DRender6QLayer16staticMetaObjectE@Qt_5 5.7.1~20161122
 _ZN10Qt3DRender6QLayerC1EPN8Qt3DCore5QNodeE@Qt_5 5.7.1~20161122
 _ZN10Qt3DRender6QLayerC1ERNS_13QLayerPrivateEPN8Qt3DCore5QNodeE@Qt_5 5.7.1~20161122
 _ZN10Qt3DRender6QLayerC2EPN8Qt3DCore5QNodeE@Qt_5 5.7.1~20161122
 _ZN10Qt3DRender6QLayerC2ERNS_13QLayerPrivateEPN8Qt3DCore5QNodeE@Qt_5 5.7.1~20161122
 _ZN10Qt3DRender6QLayerD0Ev@Qt_5 5.7.1~20161122
 _ZN10Qt3DRender6QLayerD1Ev@Qt_5 5.7.1~20161122
 _ZN10Qt3DRender6QLayerD2Ev@Qt_5 5.7.1~20161122
 _ZN10Qt3DRender6Render10CameraLens10viewMatrixERK10QMatrix4x4@Qt_5 5.9.5
 _ZN10Qt3DRender6Render10CameraLens11setExposureEf@Qt_5 5.9.5
 _ZN10Qt3DRender6Render10CameraLens13setProjectionERK10QMatrix4x4@Qt_5 5.9.5
 _ZN10Qt3DRender6Render10CameraLens16sceneChangeEventERK14QSharedPointerIN8Qt3DCore12QSceneChangeEE@Qt_5 5.9.5
 _ZN10Qt3DRender6Render10CameraLens18initializeFromPeerERK14QSharedPointerIN8Qt3DCore22QNodeCreatedChangeBaseEE@Qt_5 5.9.5
 _ZN10Qt3DRender6Render10CameraLens7cleanupEv@Qt_5 5.9.5
 _ZN10Qt3DRender6Render10CameraLensC1Ev@Qt_5 5.9.5
 _ZN10Qt3DRender6Render10CameraLensC2Ev@Qt_5 5.9.5
 _ZN10Qt3DRender6Render10CameraLensD0Ev@Qt_5 5.9.5
 _ZN10Qt3DRender6Render10CameraLensD1Ev@Qt_5 5.9.5
 _ZN10Qt3DRender6Render10CameraLensD2Ev@Qt_5 5.9.5
 _ZN10Qt3DRender6Render11BackendNode11setRendererEPNS0_16AbstractRendererE@Qt_5 5.9.0
 _ZN10Qt3DRender6Render11BackendNode16resourceAccessorEv@Qt_5 5.9.0
 _ZN10Qt3DRender6Render11BackendNode9markDirtyE6QFlagsINS0_16AbstractRenderer20BackendNodeDirtyFlagEE@Qt_5 5.9.0
 _ZN10Qt3DRender6Render11BackendNodeC1EN8Qt3DCore12QBackendNode4ModeE@Qt_5 5.9.0
 _ZN10Qt3DRender6Render11BackendNodeC2EN8Qt3DCore12QBackendNode4ModeE@Qt_5 5.9.0
 _ZN10Qt3DRender6Render11BackendNodeD0Ev@Qt_5 5.9.0
 _ZN10Qt3DRender6Render11BackendNodeD1Ev@Qt_5 5.9.0
 _ZN10Qt3DRender6Render11BackendNodeD2Ev@Qt_5 5.9.0
 _ZN10Qt3DRender6Render11ShaderCache25getShaderProgramAndAddRefEjN8Qt3DCore7QNodeIdEPb@Qt_5 5.9.5
 _ZN10Qt3DRender6Render11ShaderCache5clearEv@Qt_5 5.7.1~20161122
 _ZN10Qt3DRender6Render11ShaderCache5purgeEv@Qt_5 5.7.1~20161122
 _ZN10Qt3DRender6Render11ShaderCache6insertEjN8Qt3DCore7QNodeIdEP20QOpenGLShaderProgram@Qt_5 5.7.1~20161122
 _ZN10Qt3DRender6Render11ShaderCache9removeRefEjN8Qt3DCore7QNodeIdE@Qt_5 5.7.1~20161122
 _ZN10Qt3DRender6Render11ShaderCacheD1Ev@Qt_5 5.7.1~20161122
 _ZN10Qt3DRender6Render11ShaderCacheD2Ev@Qt_5 5.7.1~20161122
 _ZN10Qt3DRender6Render12NodeManagers16resourceAccessorEv@Qt_5 5.9.0
 _ZN10Qt3DRender6Render12NodeManagersC1Ev@Qt_5 5.7.1~20161122
 _ZN10Qt3DRender6Render12NodeManagersC2Ev@Qt_5 5.7.1~20161122
 _ZN10Qt3DRender6Render12NodeManagersD1Ev@Qt_5 5.7.1~20161122
 _ZN10Qt3DRender6Render12NodeManagersD2Ev@Qt_5 5.7.1~20161122
 _ZN10Qt3DRender6Render13SurfaceLockerC1EP8QSurface@Qt_5 5.9.0
 _ZN10Qt3DRender6Render13SurfaceLockerC2EP8QSurface@Qt_5 5.9.0
 _ZN10Qt3DRender6Render13SurfaceLockerD1Ev@Qt_5 5.9.0
 _ZN10Qt3DRender6Render13SurfaceLockerD2Ev@Qt_5 5.9.0
 _ZN10Qt3DRender6Render15FrameCleanupJob11setManagersEPNS0_12NodeManagersE@Qt_5 5.7.1~20161122
 _ZN10Qt3DRender6Render15FrameCleanupJob26updateBoundingVolumesDebugEPNS0_6EntityE@Qt_5_PRIVATE_API 5.7.1~20161122
 _ZN10Qt3DRender6Render15FrameCleanupJob3runEv@Qt_5 5.7.1~20161122
 _ZN10Qt3DRender6Render15FrameCleanupJob7setRootEPNS0_6EntityE@Qt_5_PRIVATE_API 5.7.1~20161122
 _ZN10Qt3DRender6Render15FrameCleanupJobC1Ev@Qt_5 5.7.1~20161122
 _ZN10Qt3DRender6Render15FrameCleanupJobC2Ev@Qt_5 5.7.1~20161122
 _ZN10Qt3DRender6Render15FrameCleanupJobD0Ev@Qt_5 5.7.1~20161122
 _ZN10Qt3DRender6Render15FrameCleanupJobD1Ev@Qt_5 5.7.1~20161122
 _ZN10Qt3DRender6Render15FrameCleanupJobD2Ev@Qt_5 5.7.1~20161122
 _ZN10Qt3DRender6Render16CoordinateReader11setGeometryEPKNS0_16GeometryRendererERK7QString@Qt_5_PRIVATE_API 5.9.0
 _ZN10Qt3DRender6Render16CoordinateReader13getCoordinateEj@Qt_5 5.9.0
 _ZN10Qt3DRender6Render16ResourceAccessor14accessResourceENS0_29RenderBackendResourceAccessor12ResourceTypeEN8Qt3DCore7QNodeIdEPPvPP6QMutex@Qt_5 5.9.0
 _ZN10Qt3DRender6Render16ResourceAccessorC1EPNS0_12NodeManagersE@Qt_5 5.9.0
 _ZN10Qt3DRender6Render16ResourceAccessorC2EPNS0_12NodeManagersE@Qt_5 5.9.0
 _ZN10Qt3DRender6Render20FilterLayerEntityJob17selectAllEntitiesEv@Qt_5 5.9.0
 _ZN10Qt3DRender6Render20FilterLayerEntityJob20filterLayerAndEntityEv@Qt_5 5.9.0
 _ZN10Qt3DRender6Render20FilterLayerEntityJob3runEv@Qt_5 5.9.0
 _ZN10Qt3DRender6Render20FilterLayerEntityJobC1Ev@Qt_5 5.9.0
 _ZN10Qt3DRender6Render20FilterLayerEntityJobC2Ev@Qt_5 5.9.0
 _ZN10Qt3DRender6Render20QRenderPluginFactory4keysERK7QString@Qt_5 5.9.0
 _ZN10Qt3DRender6Render20QRenderPluginFactory6createERK7QStringRK11QStringListS4_@Qt_5 5.9.0
 _ZN10Qt3DRender6Render20SendBufferCaptureJob10addRequestE5QPairIPNS0_6BufferE10QByteArrayE@Qt_5_PRIVATE_API 5.9.0
 _ZN10Qt3DRender6Render20SendBufferCaptureJob11setManagersEPNS0_12NodeManagersE@Qt_5 5.9.0
 _ZN10Qt3DRender6Render20SendBufferCaptureJob3runEv@Qt_5 5.9.0
 _ZN10Qt3DRender6Render20SendBufferCaptureJobC1Ev@Qt_5 5.9.0
 _ZN10Qt3DRender6Render20SendBufferCaptureJobC2Ev@Qt_5 5.9.0
 _ZN10Qt3DRender6Render20SendBufferCaptureJobD0Ev@Qt_5 5.9.0
 _ZN10Qt3DRender6Render20SendBufferCaptureJobD1Ev@Qt_5 5.9.0
 _ZN10Qt3DRender6Render20SendBufferCaptureJobD2Ev@Qt_5 5.9.0
 _ZN10Qt3DRender6Render20SendRenderCaptureJob11setManagersEPNS0_12NodeManagersE@Qt_5 5.9.0
 _ZN10Qt3DRender6Render20SendRenderCaptureJob3runEv@Qt_5 5.9.0
 _ZN10Qt3DRender6Render20SendRenderCaptureJobC1EPNS0_8RendererE@Qt_5 5.9.0
 _ZN10Qt3DRender6Render20SendRenderCaptureJobC2EPNS0_8RendererE@Qt_5 5.9.0
 _ZN10Qt3DRender6Render20SendRenderCaptureJobD0Ev@Qt_5 5.9.0
 _ZN10Qt3DRender6Render20SendRenderCaptureJobD1Ev@Qt_5 5.9.0
 _ZN10Qt3DRender6Render20SendRenderCaptureJobD2Ev@Qt_5 5.9.0
 _ZN10Qt3DRender6Render20UpdateTreeEnabledJob3runEv@Qt_5 5.9.0
 _ZN10Qt3DRender6Render20UpdateTreeEnabledJob7setRootEPNS0_6EntityE@Qt_5_PRIVATE_API 5.9.0
 _ZN10Qt3DRender6Render20UpdateTreeEnabledJobC1Ev@Qt_5 5.9.0
 _ZN10Qt3DRender6Render20UpdateTreeEnabledJobC2Ev@Qt_5 5.9.0
 _ZN10Qt3DRender6Render22QRenderPluginFactoryIf11qt_metacallEN11QMetaObject4CallEiPPv@Qt_5 5.9.0
 _ZN10Qt3DRender6Render22QRenderPluginFactoryIf11qt_metacastEPKc@Qt_5 5.9.0
 _ZN10Qt3DRender6Render22QRenderPluginFactoryIf16staticMetaObjectE@Qt_5 5.9.0
 _ZN10Qt3DRender6Render22QRenderPluginFactoryIf6createERK7QStringRK11QStringList@Qt_5 5.9.0
 _ZN10Qt3DRender6Render22QRenderPluginFactoryIfC1EP7QObject@Qt_5 5.9.0
 _ZN10Qt3DRender6Render22QRenderPluginFactoryIfC2EP7QObject@Qt_5 5.9.0
 _ZN10Qt3DRender6Render22QRenderPluginFactoryIfD0Ev@Qt_5 5.9.0
 _ZN10Qt3DRender6Render22QRenderPluginFactoryIfD1Ev@Qt_5 5.9.0
 _ZN10Qt3DRender6Render22QRenderPluginFactoryIfD2Ev@Qt_5 5.9.0
 _ZN10Qt3DRender6Render22UpdateLevelOfDetailJob11setManagersEPNS0_12NodeManagersE@Qt_5 5.9.0
 _ZN10Qt3DRender6Render22UpdateLevelOfDetailJob15updateEntityLodEPNS0_6EntityE@Qt_5_PRIVATE_API 5.9.0
 _ZN10Qt3DRender6Render22UpdateLevelOfDetailJob17setFrameGraphRootEPNS0_14FrameGraphNodeE@Qt_5_PRIVATE_API 5.9.0
 _ZN10Qt3DRender6Render22UpdateLevelOfDetailJob25updateEntityLodByDistanceEPNS0_6EntityEPNS0_13LevelOfDetailE@Qt_5_PRIVATE_API 5.9.0
 _ZN10Qt3DRender6Render22UpdateLevelOfDetailJob27updateEntityLodByScreenAreaEPNS0_6EntityEPNS0_13LevelOfDetailE@Qt_5_PRIVATE_API 5.9.0
 _ZN10Qt3DRender6Render22UpdateLevelOfDetailJob3runEv@Qt_5 5.9.0
 _ZN10Qt3DRender6Render22UpdateLevelOfDetailJob7setRootEPNS0_6EntityE@Qt_5_PRIVATE_API 5.9.0
 _ZN10Qt3DRender6Render22UpdateLevelOfDetailJobC1Ev@Qt_5 5.9.0
 _ZN10Qt3DRender6Render22UpdateLevelOfDetailJobC2Ev@Qt_5 5.9.0
 _ZN10Qt3DRender6Render22UpdateLevelOfDetailJobD0Ev@Qt_5 5.9.0
 _ZN10Qt3DRender6Render22UpdateLevelOfDetailJobD1Ev@Qt_5 5.9.0
 _ZN10Qt3DRender6Render22UpdateLevelOfDetailJobD2Ev@Qt_5 5.9.0
 _ZN10Qt3DRender6Render23ExpandBoundingVolumeJob3runEv@Qt_5 5.7.1~20161122
 _ZN10Qt3DRender6Render23ExpandBoundingVolumeJob7setRootEPNS0_6EntityE@Qt_5_PRIVATE_API 5.7.1~20161122
 _ZN10Qt3DRender6Render23ExpandBoundingVolumeJobC1Ev@Qt_5 5.7.1~20161122
 _ZN10Qt3DRender6Render23ExpandBoundingVolumeJobC2Ev@Qt_5 5.7.1~20161122
 _ZN10Qt3DRender6Render23UpdateWorldTransformJob3runEv@Qt_5 5.7.1~20161122
 _ZN10Qt3DRender6Render23UpdateWorldTransformJob7setRootEPNS0_6EntityE@Qt_5_PRIVATE_API 5.7.1~20161122
 _ZN10Qt3DRender6Render23UpdateWorldTransformJobC1Ev@Qt_5 5.7.1~20161122
 _ZN10Qt3DRender6Render23UpdateWorldTransformJobC2Ev@Qt_5 5.7.1~20161122
 _ZN10Qt3DRender6Render25UpdateMeshTriangleListJob11setManagersEPNS0_12NodeManagersE@Qt_5 5.9.0
 _ZN10Qt3DRender6Render25UpdateMeshTriangleListJob3runEv@Qt_5 5.9.0
 _ZN10Qt3DRender6Render25UpdateMeshTriangleListJobC1Ev@Qt_5 5.9.0
 _ZN10Qt3DRender6Render25UpdateMeshTriangleListJobC2Ev@Qt_5 5.9.0
 _ZN10Qt3DRender6Render25UpdateMeshTriangleListJobD0Ev@Qt_5 5.9.0
 _ZN10Qt3DRender6Render25UpdateMeshTriangleListJobD1Ev@Qt_5 5.9.0
 _ZN10Qt3DRender6Render25UpdateMeshTriangleListJobD2Ev@Qt_5 5.9.0
 _ZN10Qt3DRender6Render26CalculateBoundingVolumeJob11setManagersEPNS0_12NodeManagersE@Qt_5 5.7.1~20161122
 _ZN10Qt3DRender6Render26CalculateBoundingVolumeJob3runEv@Qt_5 5.7.1~20161122
 _ZN10Qt3DRender6Render26CalculateBoundingVolumeJob7setRootEPNS0_6EntityE@Qt_5_PRIVATE_API 5.7.1~20161122
 _ZN10Qt3DRender6Render26CalculateBoundingVolumeJobC1Ev@Qt_5 5.7.1~20161122
 _ZN10Qt3DRender6Render26CalculateBoundingVolumeJobC2Ev@Qt_5 5.7.1~20161122
 _ZN10Qt3DRender6Render28FilterCompatibleTechniqueJob10setManagerEPNS0_16TechniqueManagerE@Qt_5_PRIVATE_API 5.9.0
 _ZN10Qt3DRender6Render28FilterCompatibleTechniqueJob11setRendererEPNS0_8RendererE@Qt_5 5.9.0
 _ZN10Qt3DRender6Render28FilterCompatibleTechniqueJob3runEv@Qt_5 5.9.0
 _ZN10Qt3DRender6Render28FilterCompatibleTechniqueJobC1Ev@Qt_5 5.9.0
 _ZN10Qt3DRender6Render28FilterCompatibleTechniqueJobC2Ev@Qt_5 5.9.0
 _ZN10Qt3DRender6Render28MaterialParameterGathererJob3runEv@Qt_5_PRIVATE_API 5.9.0
 _ZN10Qt3DRender6Render28MaterialParameterGathererJobC1Ev@Qt_5_PRIVATE_API 5.9.0
 _ZN10Qt3DRender6Render28MaterialParameterGathererJobC2Ev@Qt_5_PRIVATE_API 5.9.0
 _ZN10Qt3DRender6Render28UpdateShaderDataTransformJob11setManagersEPNS0_12NodeManagersE@Qt_5 5.9.0
 _ZN10Qt3DRender6Render28UpdateShaderDataTransformJob3runEv@Qt_5 5.9.0
 _ZN10Qt3DRender6Render28UpdateShaderDataTransformJobC1Ev@Qt_5 5.9.0
 _ZN10Qt3DRender6Render28UpdateShaderDataTransformJobC2Ev@Qt_5 5.9.0
 _ZN10Qt3DRender6Render28UpdateShaderDataTransformJobD0Ev@Qt_5 5.9.0
 _ZN10Qt3DRender6Render28UpdateShaderDataTransformJobD1Ev@Qt_5 5.9.0
 _ZN10Qt3DRender6Render28UpdateShaderDataTransformJobD2Ev@Qt_5 5.9.0
 _ZN10Qt3DRender6Render28UpdateWorldBoundingVolumeJob3runEv@Qt_5 5.7.1~20161122
 _ZN10Qt3DRender6Render28UpdateWorldBoundingVolumeJobC1Ev@Qt_5 5.7.1~20161122
 _ZN10Qt3DRender6Render28UpdateWorldBoundingVolumeJobC2Ev@Qt_5 5.7.1~20161122
 _ZN10Qt3DRender6Render6Sphere10fromPointsERK7QVectorI9QVector3DE@Qt_5 5.7.1~20161122
 _ZN10Qt3DRender6Render6Sphere10ms_epsilonE@Qt_5 5.7.1~20161122
 _ZN10Qt3DRender6Render6Sphere15expandToContainERK9QVector3D@Qt_5 5.7.1~20161122
 _ZN10Qt3DRender6Render6Sphere15expandToContainERKS1_@Qt_5 5.7.1~20161122
 _ZN10Qt3DRender6Render6Sphere20initializeFromPointsERK7QVectorI9QVector3DE@Qt_5 5.7.1~20161122
 _ZN10Qt3DRender6Render8Renderer10initializeEv@Qt_5 5.7.1~20161122
 _ZN10Qt3DRender6Render8Renderer11performDrawEPNS0_13RenderCommandE@Qt_5_PRIVATE_API 5.9.2
 _ZN10Qt3DRender6Render8Renderer11setSettingsEPNS0_14RenderSettingsE@Qt_5_PRIVATE_API 5.9.0
 _ZN10Qt3DRender6Render8Renderer12setSceneRootEPN8Qt3DCore19QBackendNodeFactoryEPNS0_6EntityE@Qt_5_PRIVATE_API 5.7.1~20161122
 _ZN10Qt3DRender6Render8Renderer12shouldRenderEv@Qt_5 5.7.1~20161122
 _ZN10Qt3DRender6Render8Renderer13renderBinJobsEv@Qt_5 5.7.1~20161122
 _ZN10Qt3DRender6Render8Renderer13skipNextFrameEv@Qt_5 5.7.1~20161122
 _ZN10Qt3DRender6Render8Renderer13updateTextureEPNS0_7TextureE@Qt_5_PRIVATE_API 5.9.0
 _ZN10Qt3DRender6Render8Renderer14cleanupTextureEPKNS0_7TextureE@Qt_5_PRIVATE_API 5.9.0
 _ZN10Qt3DRender6Render8Renderer14clearDirtyBitsE6QFlagsINS0_16AbstractRenderer20BackendNodeDirtyFlagEE@Qt_5 5.7.1~20161122
 _ZN10Qt3DRender6Render8Renderer14executeCommandERK11QStringList@Qt_5 5.7.1~20161122
 _ZN10Qt3DRender6Render8Renderer14performComputeEPKNS0_10RenderViewEPNS0_13RenderCommandE@Qt_5_PRIVATE_API 5.7.1~20161122
 _ZN10Qt3DRender6Render8Renderer15isReadyToSubmitEv@Qt_5 5.7.1~20161122
 _ZN10Qt3DRender6Render8Renderer15setNodeManagersEPNS0_12NodeManagersE@Qt_5 5.7.1~20161122
 _ZN10Qt3DRender6Render8Renderer16setOpenGLContextEP14QOpenGLContext@Qt_5 5.7.1~20161122
 _ZN10Qt3DRender6Render8Renderer17createOrUpdateVAOEPNS0_13RenderCommandEPN8Qt3DCore7QHandleINS0_23OpenGLVertexArrayObjectEEEPPS6_@Qt_5_PRIVATE_API 5.9.4
 _ZN10Qt3DRender6Render8Renderer17downloadGLBuffersEv@Qt_5 5.9.0
 _ZN10Qt3DRender6Render8Renderer17enqueueRenderViewEPNS0_10RenderViewEi@Qt_5_PRIVATE_API 5.7.1~20161122
 _ZN10Qt3DRender6Render8Renderer17setSurfaceExposedEb@Qt_5 5.7.1~20161122
 _ZN10Qt3DRender6Render8Renderer17submitRenderViewsERK7QVectorIPNS0_10RenderViewEE@Qt_5_PRIVATE_API 5.7.1~20161122
 _ZN10Qt3DRender6Render8Renderer17updateGLResourcesEv@Qt_5 5.7.1~20161122
 _ZN10Qt3DRender6Render8Renderer19lookForDirtyBuffersEv@Qt_5 5.9.0
 _ZN10Qt3DRender6Render8Renderer19lookForDirtyShadersEv@Qt_5 5.9.0
 _ZN10Qt3DRender6Render8Renderer19registerEventFilterEPN8Qt3DCore19QEventFilterServiceE@Qt_5 5.7.1~20161122
 _ZN10Qt3DRender6Render8Renderer20lookForAbandonedVaosEv@Qt_5 5.9.0
 _ZN10Qt3DRender6Render8Renderer20lookForDirtyTexturesEv@Qt_5 5.9.0
 _ZN10Qt3DRender6Render8Renderer21pickBoundingVolumeJobEv@Qt_5 5.7.1~20161122
 _ZN10Qt3DRender6Render8Renderer21syncTextureLoadingJobEv@Qt_5 5.9.0
 _ZN10Qt3DRender6Render8Renderer22cleanGraphicsResourcesEv@Qt_5 5.7.1~20161122
 _ZN10Qt3DRender6Render8Renderer23updateVAOWithAttributesEPNS0_8GeometryEPNS0_13RenderCommandEPNS0_6ShaderEb@Qt_5_PRIVATE_API 5.7.1~20161122
 _ZN10Qt3DRender6Render8Renderer24releaseGraphicsResourcesEv@Qt_5 5.7.1~20161122
 _ZN10Qt3DRender6Render8Renderer25executeCommandsSubmissionEPKNS0_10RenderViewE@Qt_5_PRIVATE_API 5.7.1~20161122
 _ZN10Qt3DRender6Render8Renderer25prepareCommandsSubmissionERK7QVectorIPNS0_10RenderViewEE@Qt_5_PRIVATE_API 5.7.1~20161122
 _ZN10Qt3DRender6Render8Renderer25setOffscreenSurfaceHelperEPNS0_22OffscreenSurfaceHelperE@Qt_5 5.9.0
 _ZN10Qt3DRender6Render8Renderer26lookForDownloadableBuffersEv@Qt_5 5.9.0
 _ZN10Qt3DRender6Render8Renderer27addRenderCaptureSendRequestEN8Qt3DCore7QNodeIdE@Qt_5 5.9.0
 _ZN10Qt3DRender6Render8Renderer36takePendingRenderCaptureSendRequestsEv@Qt_5 5.9.0
 _ZN10Qt3DRender6Render8Renderer6formatEv@Qt_5 5.9.0
 _ZN10Qt3DRender6Render8Renderer6renderEv@Qt_5 5.7.1~20161122
 _ZN10Qt3DRender6Render8Renderer7setTimeEx@Qt_5 5.7.1~20161122
 _ZN10Qt3DRender6Render8Renderer8doRenderEb@Qt_5 5.9.5
 _ZN10Qt3DRender6Render8Renderer8shutdownEv@Qt_5 5.7.1~20161122
 _ZN10Qt3DRender6Render8Renderer9dirtyBitsEv@Qt_5 5.7.1~20161122
 _ZN10Qt3DRender6Render8Renderer9markDirtyE6QFlagsINS0_16AbstractRenderer20BackendNodeDirtyFlagEEPNS0_11BackendNodeE@Qt_5 5.9.0
 _ZN10Qt3DRender6Render8RendererC1ENS_13QRenderAspect10RenderTypeE@Qt_5 5.7.1~20161122
 _ZN10Qt3DRender6Render8RendererC2ENS_13QRenderAspect10RenderTypeE@Qt_5 5.7.1~20161122
 _ZN10Qt3DRender6Render8RendererD0Ev@Qt_5 5.7.1~20161122
 _ZN10Qt3DRender6Render8RendererD1Ev@Qt_5 5.7.1~20161122
 _ZN10Qt3DRender6Render8RendererD2Ev@Qt_5 5.7.1~20161122
 _ZN10Qt3DRender6Render9Technique14setNodeManagerEPNS0_12NodeManagersE@Qt_5 5.9.0
 _ZN10Qt3DRender6Render9Technique15appendFilterKeyEN8Qt3DCore7QNodeIdE@Qt_5 5.9.0
 _ZN10Qt3DRender6Render9Technique15removeFilterKeyEN8Qt3DCore7QNodeIdE@Qt_5 5.9.0
 _ZN10Qt3DRender6Render9Technique16appendRenderPassEN8Qt3DCore7QNodeIdE@Qt_5 5.9.0
 _ZN10Qt3DRender6Render9Technique16removeRenderPassEN8Qt3DCore7QNodeIdE@Qt_5 5.9.0
 _ZN10Qt3DRender6Render9Technique16sceneChangeEventERK14QSharedPointerIN8Qt3DCore12QSceneChangeEE@Qt_5 5.9.0
 _ZN10Qt3DRender6Render9Technique18initializeFromPeerERK14QSharedPointerIN8Qt3DCore22QNodeCreatedChangeBaseEE@Qt_5 5.9.0
 _ZN10Qt3DRender6Render9Technique23isCompatibleWithFiltersERK7QVectorIN8Qt3DCore7QNodeIdEE@Qt_5 5.9.0
 _ZN10Qt3DRender6Render9Technique25setCompatibleWithRendererEb@Qt_5 5.9.0
 _ZN10Qt3DRender6Render9Technique7cleanupEv@Qt_5 5.9.0
 _ZN10Qt3DRender6Render9TechniqueC1Ev@Qt_5 5.9.0
 _ZN10Qt3DRender6Render9TechniqueC2Ev@Qt_5 5.9.0
 _ZN10Qt3DRender6Render9TechniqueD0Ev@Qt_5 5.9.0
 _ZN10Qt3DRender6Render9TechniqueD1Ev@Qt_5 5.9.0
 _ZN10Qt3DRender6Render9TechniqueD2Ev@Qt_5 5.9.0
 _ZN10Qt3DRender7QBuffer10updateDataEiRK10QByteArray@Qt_5 5.9.0
 _ZN10Qt3DRender7QBuffer11dataChangedERK10QByteArray@Qt_5 5.7.1~20161122
 _ZN10Qt3DRender7QBuffer11qt_metacallEN11QMetaObject4CallEiPPv@Qt_5 5.7.1~20161122
 _ZN10Qt3DRender7QBuffer11qt_metacastEPKc@Qt_5 5.7.1~20161122
 _ZN10Qt3DRender7QBuffer11setSyncDataEb@Qt_5 5.7.1~20161122
 _ZN10Qt3DRender7QBuffer11typeChangedENS0_10BufferTypeE@Qt_5 5.7.1~20161122
 _ZN10Qt3DRender7QBuffer12usageChangedENS0_9UsageTypeE@Qt_5 5.7.1~20161122
 _ZN10Qt3DRender7QBuffer13dataAvailableEv@Qt_5 5.9.0
 _ZN10Qt3DRender7QBuffer13setAccessTypeENS0_10AccessTypeE@Qt_5 5.9.0
 _ZN10Qt3DRender7QBuffer15syncDataChangedEb@Qt_5 5.7.1~20161122
 _ZN10Qt3DRender7QBuffer16sceneChangeEventERK14QSharedPointerIN8Qt3DCore12QSceneChangeEE@Qt_5 5.7.1~20161122
 _ZN10Qt3DRender7QBuffer16setDataGeneratorERK14QSharedPointerINS_20QBufferDataGeneratorEE@Qt_5 5.7.1~20161122
 _ZN10Qt3DRender7QBuffer16staticMetaObjectE@Qt_5 5.7.1~20161122
 _ZN10Qt3DRender7QBuffer17accessTypeChangedENS0_10AccessTypeE@Qt_5 5.9.0
 _ZN10Qt3DRender7QBuffer7setDataERK10QByteArray@Qt_5 5.7.1~20161122
 _ZN10Qt3DRender7QBuffer7setTypeENS0_10BufferTypeE@Qt_5 5.7.1~20161122
 _ZN10Qt3DRender7QBuffer8setUsageENS0_9UsageTypeE@Qt_5 5.7.1~20161122
 _ZN10Qt3DRender7QBufferC1ENS0_10BufferTypeEPN8Qt3DCore5QNodeE@Qt_5 5.7.1~20161122
 _ZN10Qt3DRender7QBufferC2ENS0_10BufferTypeEPN8Qt3DCore5QNodeE@Qt_5 5.7.1~20161122
 _ZN10Qt3DRender7QBufferD0Ev@Qt_5 5.7.1~20161122
 _ZN10Qt3DRender7QBufferD1Ev@Qt_5 5.7.1~20161122
 _ZN10Qt3DRender7QBufferD2Ev@Qt_5 5.7.1~20161122
 _ZN10Qt3DRender7QCamera10topChangedEf@Qt_5 5.7.1~20161122
 _ZN10Qt3DRender7QCamera11leftChangedEf@Qt_5 5.7.1~20161122
 _ZN10Qt3DRender7QCamera11qt_metacallEN11QMetaObject4CallEiPPv@Qt_5 5.7.1~20161122
 _ZN10Qt3DRender7QCamera11qt_metacastEPKc@Qt_5 5.7.1~20161122
 _ZN10Qt3DRender7QCamera11setExposureEf@Qt_5 5.9.0
 _ZN10Qt3DRender7QCamera11setFarPlaneEf@Qt_5 5.7.1~20161122
 _ZN10Qt3DRender7QCamera11setPositionERK9QVector3D@Qt_5 5.7.1~20161122
 _ZN10Qt3DRender7QCamera11setUpVectorERK9QVector3D@Qt_5 5.7.1~20161122
 _ZN10Qt3DRender7QCamera12rightChangedEf@Qt_5 5.7.1~20161122
 _ZN10Qt3DRender7QCamera12setNearPlaneEf@Qt_5 5.7.1~20161122
 _ZN10Qt3DRender7QCamera13bottomChangedEf@Qt_5 5.7.1~20161122
 _ZN10Qt3DRender7QCamera13setViewCenterERK9QVector3D@Qt_5 5.7.1~20161122
 _ZN10Qt3DRender7QCamera14setAspectRatioEf@Qt_5 5.7.1~20161122
 _ZN10Qt3DRender7QCamera14setFieldOfViewEf@Qt_5 5.7.1~20161122
 _ZN10Qt3DRender7QCamera14translateWorldERK9QVector3DNS0_23CameraTranslationOptionE@Qt_5 5.7.1~20161122
 _ZN10Qt3DRender7QCamera15exposureChangedEf@Qt_5 5.9.0
 _ZN10Qt3DRender7QCamera15farPlaneChangedEf@Qt_5 5.7.1~20161122
 _ZN10Qt3DRender7QCamera15positionChangedERK9QVector3D@Qt_5 5.7.1~20161122
 _ZN10Qt3DRender7QCamera15upVectorChangedERK9QVector3D@Qt_5 5.7.1~20161122
 _ZN10Qt3DRender7QCamera16nearPlaneChangedEf@Qt_5 5.7.1~20161122
 _ZN10Qt3DRender7QCamera16staticMetaObjectE@Qt_5 5.7.1~20161122
 _ZN10Qt3DRender7QCamera17setProjectionTypeENS_11QCameraLens14ProjectionTypeE@Qt_5 5.7.1~20161122
 _ZN10Qt3DRender7QCamera17viewCenterChangedERK9QVector3D@Qt_5 5.7.1~20161122
 _ZN10Qt3DRender7QCamera17viewMatrixChangedEv@Qt_5 5.7.1~20161122
 _ZN10Qt3DRender7QCamera17viewVectorChangedERK9QVector3D@Qt_5 5.7.1~20161122
 _ZN10Qt3DRender7QCamera18aspectRatioChangedEf@Qt_5 5.7.1~20161122
 _ZN10Qt3DRender7QCamera18fieldOfViewChangedEf@Qt_5 5.7.1~20161122
 _ZN10Qt3DRender7QCamera18panAboutViewCenterEf@Qt_5 5.7.1~20161122
 _ZN10Qt3DRender7QCamera18panAboutViewCenterEfRK9QVector3D@Qt_5 5.7.1~20161122
 _ZN10Qt3DRender7QCamera19rollAboutViewCenterEf@Qt_5 5.7.1~20161122
 _ZN10Qt3DRender7QCamera19setProjectionMatrixERK10QMatrix4x4@Qt_5 5.7.1~20161122
 _ZN10Qt3DRender7QCamera19tiltAboutViewCenterEf@Qt_5 5.7.1~20161122
 _ZN10Qt3DRender7QCamera21projectionTypeChangedENS_11QCameraLens14ProjectionTypeE@Qt_5 5.7.1~20161122
 _ZN10Qt3DRender7QCamera21rotateAboutViewCenterERK11QQuaternion@Qt_5 5.7.1~20161122
 _ZN10Qt3DRender7QCamera23projectionMatrixChangedERK10QMatrix4x4@Qt_5 5.7.1~20161122
 _ZN10Qt3DRender7QCamera3panEf@Qt_5 5.7.1~20161122
 _ZN10Qt3DRender7QCamera3panEfRK9QVector3D@Qt_5 5.7.1~20161122
 _ZN10Qt3DRender7QCamera4rollEf@Qt_5 5.7.1~20161122
 _ZN10Qt3DRender7QCamera4tiltEf@Qt_5 5.7.1~20161122
 _ZN10Qt3DRender7QCamera6rotateERK11QQuaternion@Qt_5 5.7.1~20161122
 _ZN10Qt3DRender7QCamera6setTopEf@Qt_5 5.7.1~20161122
 _ZN10Qt3DRender7QCamera7setLeftEf@Qt_5 5.7.1~20161122
 _ZN10Qt3DRender7QCamera8setRightEf@Qt_5 5.7.1~20161122
 _ZN10Qt3DRender7QCamera9setBottomEf@Qt_5 5.7.1~20161122
 _ZN10Qt3DRender7QCamera9translateERK9QVector3DNS0_23CameraTranslationOptionE@Qt_5 5.7.1~20161122
 _ZN10Qt3DRender7QCameraC1EPN8Qt3DCore5QNodeE@Qt_5 5.7.1~20161122
 _ZN10Qt3DRender7QCameraC1ERNS_14QCameraPrivateEPN8Qt3DCore5QNodeE@Qt_5 5.7.1~20161122
 _ZN10Qt3DRender7QCameraC2EPN8Qt3DCore5QNodeE@Qt_5 5.7.1~20161122
 _ZN10Qt3DRender7QCameraC2ERNS_14QCameraPrivateEPN8Qt3DCore5QNodeE@Qt_5 5.7.1~20161122
 _ZN10Qt3DRender7QCameraD0Ev@Qt_5 5.7.1~20161122
 _ZN10Qt3DRender7QCameraD1Ev@Qt_5 5.7.1~20161122
 _ZN10Qt3DRender7QCameraD2Ev@Qt_5 5.7.1~20161122
 _ZN10Qt3DRender7QEffect11qt_metacallEN11QMetaObject4CallEiPPv@Qt_5 5.7.1~20161122
 _ZN10Qt3DRender7QEffect11qt_metacastEPKc@Qt_5 5.7.1~20161122
 _ZN10Qt3DRender7QEffect12addParameterEPNS_10QParameterE@Qt_5 5.7.1~20161122
 _ZN10Qt3DRender7QEffect12addTechniqueEPNS_10QTechniqueE@Qt_5 5.7.1~20161122
 _ZN10Qt3DRender7QEffect15removeParameterEPNS_10QParameterE@Qt_5 5.7.1~20161122
 _ZN10Qt3DRender7QEffect15removeTechniqueEPNS_10QTechniqueE@Qt_5 5.7.1~20161122
 _ZN10Qt3DRender7QEffect16staticMetaObjectE@Qt_5 5.7.1~20161122
 _ZN10Qt3DRender7QEffectC1EPN8Qt3DCore5QNodeE@Qt_5 5.7.1~20161122
 _ZN10Qt3DRender7QEffectC1ERNS_14QEffectPrivateEPN8Qt3DCore5QNodeE@Qt_5 5.7.1~20161122
 _ZN10Qt3DRender7QEffectC2EPN8Qt3DCore5QNodeE@Qt_5 5.7.1~20161122
 _ZN10Qt3DRender7QEffectC2ERNS_14QEffectPrivateEPN8Qt3DCore5QNodeE@Qt_5 5.7.1~20161122
 _ZN10Qt3DRender7QEffectD0Ev@Qt_5 5.7.1~20161122
 _ZN10Qt3DRender7QEffectD1Ev@Qt_5 5.7.1~20161122
 _ZN10Qt3DRender7QEffectD2Ev@Qt_5 5.7.1~20161122
 _ZN10Qt3DRender7QNoDraw11qt_metacallEN11QMetaObject4CallEiPPv@Qt_5 5.7.1~20161122
 _ZN10Qt3DRender7QNoDraw11qt_metacastEPKc@Qt_5 5.7.1~20161122
 _ZN10Qt3DRender7QNoDraw16staticMetaObjectE@Qt_5 5.7.1~20161122
 _ZN10Qt3DRender7QNoDrawC1EPN8Qt3DCore5QNodeE@Qt_5 5.7.1~20161122
 _ZN10Qt3DRender7QNoDrawC2EPN8Qt3DCore5QNodeE@Qt_5 5.7.1~20161122
 _ZN10Qt3DRender7QNoDrawD0Ev@Qt_5 5.7.1~20161122
 _ZN10Qt3DRender7QNoDrawD1Ev@Qt_5 5.7.1~20161122
 _ZN10Qt3DRender7QNoDrawD2Ev@Qt_5 5.7.1~20161122
 _ZN10Qt3DRender9QCullFace11modeChangedENS0_11CullingModeE@Qt_5 5.7.1~20161122
 _ZN10Qt3DRender9QCullFace11qt_metacallEN11QMetaObject4CallEiPPv@Qt_5 5.7.1~20161122
 _ZN10Qt3DRender9QCullFace11qt_metacastEPKc@Qt_5 5.7.1~20161122
 _ZN10Qt3DRender9QCullFace16staticMetaObjectE@Qt_5 5.7.1~20161122
 _ZN10Qt3DRender9QCullFace7setModeENS0_11CullingModeE@Qt_5 5.7.1~20161122
 _ZN10Qt3DRender9QCullFaceC1EPN8Qt3DCore5QNodeE@Qt_5 5.7.1~20161122
 _ZN10Qt3DRender9QCullFaceC2EPN8Qt3DCore5QNodeE@Qt_5 5.7.1~20161122
 _ZN10Qt3DRender9QCullFaceD0Ev@Qt_5 5.7.1~20161122
 _ZN10Qt3DRender9QCullFaceD1Ev@Qt_5 5.7.1~20161122
 _ZN10Qt3DRender9QCullFaceD2Ev@Qt_5 5.7.1~20161122
 _ZN10Qt3DRender9QGeometry11qt_metacallEN11QMetaObject4CallEiPPv@Qt_5 5.7.1~20161122
 _ZN10Qt3DRender9QGeometry11qt_metacastEPKc@Qt_5 5.7.1~20161122
 _ZN10Qt3DRender9QGeometry12addAttributeEPNS_10QAttributeE@Qt_5 5.7.1~20161122
 _ZN10Qt3DRender9QGeometry15removeAttributeEPNS_10QAttributeE@Qt_5 5.7.1~20161122
 _ZN10Qt3DRender9QGeometry16staticMetaObjectE@Qt_5 5.7.1~20161122
 _ZN10Qt3DRender9QGeometry34setBoundingVolumePositionAttributeEPNS_10QAttributeE@Qt_5 5.7.1~20161122
 _ZN10Qt3DRender9QGeometry38boundingVolumePositionAttributeChangedEPNS_10QAttributeE@Qt_5 5.7.1~20161122
 _ZN10Qt3DRender9QGeometryC1EPN8Qt3DCore5QNodeE@Qt_5 5.7.1~20161122
 _ZN10Qt3DRender9QGeometryC1ERNS_16QGeometryPrivateEPN8Qt3DCore5QNodeE@Qt_5 5.7.1~20161122
 _ZN10Qt3DRender9QGeometryC2EPN8Qt3DCore5QNodeE@Qt_5 5.7.1~20161122
 _ZN10Qt3DRender9QGeometryC2ERNS_16QGeometryPrivateEPN8Qt3DCore5QNodeE@Qt_5 5.7.1~20161122
 _ZN10Qt3DRender9QGeometryD0Ev@Qt_5 5.7.1~20161122
 _ZN10Qt3DRender9QGeometryD1Ev@Qt_5 5.7.1~20161122
 _ZN10Qt3DRender9QGeometryD2Ev@Qt_5 5.7.1~20161122
 _ZN10Qt3DRender9QMaterial11qt_metacallEN11QMetaObject4CallEiPPv@Qt_5 5.7.1~20161122
 _ZN10Qt3DRender9QMaterial11qt_metacastEPKc@Qt_5 5.7.1~20161122
 _ZN10Qt3DRender9QMaterial12addParameterEPNS_10QParameterE@Qt_5 5.7.1~20161122
 _ZN10Qt3DRender9QMaterial13effectChangedEPNS_7QEffectE@Qt_5 5.7.1~20161122
 _ZN10Qt3DRender9QMaterial15removeParameterEPNS_10QParameterE@Qt_5 5.7.1~20161122
 _ZN10Qt3DRender9QMaterial16staticMetaObjectE@Qt_5 5.7.1~20161122
 _ZN10Qt3DRender9QMaterial9setEffectEPNS_7QEffectE@Qt_5 5.7.1~20161122
 _ZN10Qt3DRender9QMaterialC1EPN8Qt3DCore5QNodeE@Qt_5 5.7.1~20161122
 _ZN10Qt3DRender9QMaterialC1ERNS_16QMaterialPrivateEPN8Qt3DCore5QNodeE@Qt_5 5.7.1~20161122
 _ZN10Qt3DRender9QMaterialC2EPN8Qt3DCore5QNodeE@Qt_5 5.7.1~20161122
 _ZN10Qt3DRender9QMaterialC2ERNS_16QMaterialPrivateEPN8Qt3DCore5QNodeE@Qt_5 5.7.1~20161122
 _ZN10Qt3DRender9QMaterialD0Ev@Qt_5 5.7.1~20161122
 _ZN10Qt3DRender9QMaterialD1Ev@Qt_5 5.7.1~20161122
 _ZN10Qt3DRender9QMaterialD2Ev@Qt_5 5.7.1~20161122
 _ZN10Qt3DRender9QViewport11qt_metacallEN11QMetaObject4CallEiPPv@Qt_5 5.7.1~20161122
 _ZN10Qt3DRender9QViewport11qt_metacastEPKc@Qt_5 5.7.1~20161122
 _ZN10Qt3DRender9QViewport12gammaChangedEf@Qt_5 5.9.0
 _ZN10Qt3DRender9QViewport16staticMetaObjectE@Qt_5 5.7.1~20161122
 _ZN10Qt3DRender9QViewport17setNormalizedRectERK6QRectF@Qt_5 5.7.1~20161122
 _ZN10Qt3DRender9QViewport21normalizedRectChangedERK6QRectF@Qt_5 5.7.1~20161122
 _ZN10Qt3DRender9QViewport8setGammaEf@Qt_5 5.9.0
 _ZN10Qt3DRender9QViewportC1EPN8Qt3DCore5QNodeE@Qt_5 5.7.1~20161122
 _ZN10Qt3DRender9QViewportC1ERNS_16QViewportPrivateEPN8Qt3DCore5QNodeE@Qt_5 5.7.1~20161122
 _ZN10Qt3DRender9QViewportC2EPN8Qt3DCore5QNodeE@Qt_5 5.7.1~20161122
 _ZN10Qt3DRender9QViewportC2ERNS_16QViewportPrivateEPN8Qt3DCore5QNodeE@Qt_5 5.7.1~20161122
 _ZN10Qt3DRender9QViewportD0Ev@Qt_5 5.7.1~20161122
 _ZN10Qt3DRender9QViewportD1Ev@Qt_5 5.7.1~20161122
 _ZN10Qt3DRender9QViewportD2Ev@Qt_5 5.7.1~20161122
 (optional=templinst)_ZN9QtPrivate15ResultStoreBase5clearIN10Qt3DRender10RayCasting21QCollisionQueryResultEEEvv@Qt_5 5.9.1
 _ZNK10Qt3DRender10QAlphaTest10metaObjectEv@Qt_5 5.7.1~20161122
 _ZNK10Qt3DRender10QAlphaTest13alphaFunctionEv@Qt_5 5.7.1~20161122
 _ZNK10Qt3DRender10QAlphaTest14referenceValueEv@Qt_5 5.7.1~20161122
 _ZNK10Qt3DRender10QAlphaTest24createNodeCreationChangeEv@Qt_5 5.7.1~20161122
 _ZNK10Qt3DRender10QAttribute10byteOffsetEv@Qt_5 5.7.1~20161122
 _ZNK10Qt3DRender10QAttribute10byteStrideEv@Qt_5 5.7.1~20161122
 _ZNK10Qt3DRender10QAttribute10metaObjectEv@Qt_5 5.7.1~20161122
 _ZNK10Qt3DRender10QAttribute10vertexSizeEv@Qt_5 5.7.1~20161122
 _ZNK10Qt3DRender10QAttribute13attributeTypeEv@Qt_5 5.7.1~20161122
 _ZNK10Qt3DRender10QAttribute14vertexBaseTypeEv@Qt_5 5.7.1~20161122
 _ZNK10Qt3DRender10QAttribute24createNodeCreationChangeEv@Qt_5 5.7.1~20161122
 _ZNK10Qt3DRender10QAttribute4nameEv@Qt_5 5.7.1~20161122
 _ZNK10Qt3DRender10QAttribute5countEv@Qt_5 5.7.1~20161122
 _ZNK10Qt3DRender10QAttribute6bufferEv@Qt_5 5.7.1~20161122
 _ZNK10Qt3DRender10QAttribute7divisorEv@Qt_5 5.7.1~20161122
 _ZNK10Qt3DRender10QClipPlane10metaObjectEv@Qt_5 5.7.1~20161122
 _ZNK10Qt3DRender10QClipPlane10planeIndexEv@Qt_5 5.7.1~20161122
 _ZNK10Qt3DRender10QClipPlane24createNodeCreationChangeEv@Qt_5 5.7.1~20161122
 _ZNK10Qt3DRender10QClipPlane6normalEv@Qt_5 5.7.1~20161122
 _ZNK10Qt3DRender10QClipPlane8distanceEv@Qt_5 5.7.1~20161122
 _ZNK10Qt3DRender10QColorMask10metaObjectEv@Qt_5 5.7.1~20161122
 _ZNK10Qt3DRender10QColorMask11isRedMaskedEv@Qt_5 5.7.1~20161122
 _ZNK10Qt3DRender10QColorMask12isBlueMaskedEv@Qt_5 5.7.1~20161122
 _ZNK10Qt3DRender10QColorMask13isAlphaMaskedEv@Qt_5 5.7.1~20161122
 _ZNK10Qt3DRender10QColorMask13isGreenMaskedEv@Qt_5 5.7.1~20161122
 _ZNK10Qt3DRender10QColorMask24createNodeCreationChangeEv@Qt_5 5.7.1~20161122
 _ZNK10Qt3DRender10QDepthTest10metaObjectEv@Qt_5 5.7.1~20161122
 _ZNK10Qt3DRender10QDepthTest13depthFunctionEv@Qt_5 5.7.1~20161122
 _ZNK10Qt3DRender10QDepthTest24createNodeCreationChangeEv@Qt_5 5.7.1~20161122
 _ZNK10Qt3DRender10QDithering10metaObjectEv@Qt_5 5.7.1~20161122
 _ZNK10Qt3DRender10QFilterKey10metaObjectEv@Qt_5 5.7.1~20161122
 _ZNK10Qt3DRender10QFilterKey24createNodeCreationChangeEv@Qt_5 5.7.1~20161122
 _ZNK10Qt3DRender10QFilterKey4nameEv@Qt_5 5.7.1~20161122
 _ZNK10Qt3DRender10QFilterKey5valueEv@Qt_5 5.7.1~20161122
 _ZNK10Qt3DRender10QFrontFace10metaObjectEv@Qt_5 5.7.1~20161122
 _ZNK10Qt3DRender10QFrontFace24createNodeCreationChangeEv@Qt_5 5.7.1~20161122
 _ZNK10Qt3DRender10QFrontFace9directionEv@Qt_5 5.7.1~20161122
 _ZNK10Qt3DRender10QParameter10metaObjectEv@Qt_5 5.7.1~20161122
 _ZNK10Qt3DRender10QParameter24createNodeCreationChangeEv@Qt_5 5.7.1~20161122
 _ZNK10Qt3DRender10QParameter4nameEv@Qt_5 5.7.1~20161122
 _ZNK10Qt3DRender10QParameter5valueEv@Qt_5 5.7.1~20161122
 _ZNK10Qt3DRender10QPickEvent10isAcceptedEv@Qt_5 5.7.1~20161122
 _ZNK10Qt3DRender10QPickEvent10metaObjectEv@Qt_5 5.7.1~20161122
 _ZNK10Qt3DRender10QPickEvent17localIntersectionEv@Qt_5 5.7.1~20161122
 _ZNK10Qt3DRender10QPickEvent17worldIntersectionEv@Qt_5 5.7.1~20161122
 _ZNK10Qt3DRender10QPickEvent6buttonEv@Qt_5 5.9.0
 _ZNK10Qt3DRender10QPickEvent7buttonsEv@Qt_5 5.9.0
 _ZNK10Qt3DRender10QPickEvent8distanceEv@Qt_5 5.7.1~20161122
 _ZNK10Qt3DRender10QPickEvent8positionEv@Qt_5 5.7.1~20161122
 _ZNK10Qt3DRender10QPickEvent9modifiersEv@Qt_5 5.9.0
 _ZNK10Qt3DRender10QPointSize10metaObjectEv@Qt_5 5.7.1~20161122
 _ZNK10Qt3DRender10QPointSize24createNodeCreationChangeEv@Qt_5 5.7.1~20161122
 _ZNK10Qt3DRender10QPointSize5valueEv@Qt_5 5.7.1~20161122
 _ZNK10Qt3DRender10QPointSize8sizeModeEv@Qt_5 5.7.1~20161122
 _ZNK10Qt3DRender10QSpotLight10metaObjectEv@Qt_5 5.7.1~20161122
 _ZNK10Qt3DRender10QSpotLight11cutOffAngleEv@Qt_5 5.7.1~20161122
 _ZNK10Qt3DRender10QSpotLight14localDirectionEv@Qt_5 5.7.1~20161122
 _ZNK10Qt3DRender10QSpotLight17linearAttenuationEv@Qt_5 5.7.1~20161122
 _ZNK10Qt3DRender10QSpotLight19constantAttenuationEv@Qt_5 5.7.1~20161122
 _ZNK10Qt3DRender10QSpotLight20quadraticAttenuationEv@Qt_5 5.7.1~20161122
 _ZNK10Qt3DRender10QTechnique10filterKeysEv@Qt_5 5.7.1~20161122
 _ZNK10Qt3DRender10QTechnique10metaObjectEv@Qt_5 5.7.1~20161122
 _ZNK10Qt3DRender10QTechnique10parametersEv@Qt_5 5.7.1~20161122
 _ZNK10Qt3DRender10QTechnique12renderPassesEv@Qt_5 5.7.1~20161122
 _ZNK10Qt3DRender10QTechnique24createNodeCreationChangeEv@Qt_5 5.7.1~20161122
 _ZNK10Qt3DRender10QTexture1D10metaObjectEv@Qt_5 5.7.1~20161122
 _ZNK10Qt3DRender10QTexture2D10metaObjectEv@Qt_5 5.7.1~20161122
 _ZNK10Qt3DRender10QTexture3D10metaObjectEv@Qt_5 5.7.1~20161122
 _ZNK10Qt3DRender10RayCasting18QRayCastingService15fetchAllResultsEv@Qt_5 5.9.0
 _ZNK10Qt3DRender10RayCasting21QCollisionQueryResult11entitiesHitEv@Qt_5 5.9.0
 _ZNK10Qt3DRender10RayCasting21QCollisionQueryResult4hitsEv@Qt_5 5.9.0
 _ZNK10Qt3DRender10RayCasting21QCollisionQueryResult6handleEv@Qt_5 5.9.0
 _ZNK10Qt3DRender10RayCasting30QAbstractCollisionQueryService10metaObjectEv@Qt_5 5.9.0
 _ZNK10Qt3DRender10RayCasting6QRay3D11transformedERK10QMatrix4x4@Qt_5 5.9.0
 _ZNK10Qt3DRender10RayCasting6QRay3D17projectedDistanceERK9QVector3D@Qt_5 5.9.0
 _ZNK10Qt3DRender10RayCasting6QRay3D5pointEf@Qt_5 5.9.0
 _ZNK10Qt3DRender10RayCasting6QRay3D6originEv@Qt_5 5.9.0
 _ZNK10Qt3DRender10RayCasting6QRay3D7projectERK9QVector3D@Qt_5 5.9.0
 _ZNK10Qt3DRender10RayCasting6QRay3D8containsERK9QVector3D@Qt_5 5.9.0
 _ZNK10Qt3DRender10RayCasting6QRay3D8containsERKS1_@Qt_5 5.9.0
 _ZNK10Qt3DRender10RayCasting6QRay3D8distanceERK9QVector3D@Qt_5 5.9.0
 _ZNK10Qt3DRender10RayCasting6QRay3D8distanceEv@Qt_5 5.9.0
 _ZNK10Qt3DRender10RayCasting6QRay3D9directionEv@Qt_5 5.9.0
 _ZNK10Qt3DRender10RayCasting6QRay3DeqERKS1_@Qt_5 5.9.0
 _ZNK10Qt3DRender10RayCasting6QRay3DneERKS1_@Qt_5 5.9.0
 _ZNK10Qt3DRender11QCameraLens10metaObjectEv@Qt_5 5.7.1~20161122
 _ZNK10Qt3DRender11QCameraLens11aspectRatioEv@Qt_5 5.7.1~20161122
 _ZNK10Qt3DRender11QCameraLens11fieldOfViewEv@Qt_5 5.7.1~20161122
 _ZNK10Qt3DRender11QCameraLens14projectionTypeEv@Qt_5 5.7.1~20161122
 _ZNK10Qt3DRender11QCameraLens16projectionMatrixEv@Qt_5 5.7.1~20161122
 _ZNK10Qt3DRender11QCameraLens24createNodeCreationChangeEv@Qt_5 5.7.1~20161122
 _ZNK10Qt3DRender11QCameraLens3topEv@Qt_5 5.7.1~20161122
 _ZNK10Qt3DRender11QCameraLens4leftEv@Qt_5 5.7.1~20161122
 _ZNK10Qt3DRender11QCameraLens5rightEv@Qt_5 5.7.1~20161122
 _ZNK10Qt3DRender11QCameraLens6bottomEv@Qt_5 5.7.1~20161122
 _ZNK10Qt3DRender11QCameraLens8exposureEv@Qt_5 5.9.0
 _ZNK10Qt3DRender11QCameraLens8farPlaneEv@Qt_5 5.7.1~20161122
 _ZNK10Qt3DRender11QCameraLens9nearPlaneEv@Qt_5 5.7.1~20161122
 _ZNK10Qt3DRender11QPointLight10metaObjectEv@Qt_5 5.7.1~20161122
 _ZNK10Qt3DRender11QPointLight17linearAttenuationEv@Qt_5 5.7.1~20161122
 _ZNK10Qt3DRender11QPointLight19constantAttenuationEv@Qt_5 5.7.1~20161122
 _ZNK10Qt3DRender11QPointLight20quadraticAttenuationEv@Qt_5 5.7.1~20161122
 _ZNK10Qt3DRender11QRenderPass10filterKeysEv@Qt_5 5.7.1~20161122
 _ZNK10Qt3DRender11QRenderPass10metaObjectEv@Qt_5 5.7.1~20161122
 _ZNK10Qt3DRender11QRenderPass10parametersEv@Qt_5 5.7.1~20161122
 _ZNK10Qt3DRender11QRenderPass12renderStatesEv@Qt_5 5.7.1~20161122
 _ZNK10Qt3DRender11QRenderPass13shaderProgramEv@Qt_5 5.7.1~20161122
 _ZNK10Qt3DRender11QRenderPass24createNodeCreationChangeEv@Qt_5 5.7.1~20161122
 _ZNK10Qt3DRender11QShaderData10metaObjectEv@Qt_5 5.7.1~20161122
 _ZNK10Qt3DRender11QShaderData14propertyReaderEv@Qt_5 5.7.1~20161122
 _ZNK10Qt3DRender11QShaderData24createNodeCreationChangeEv@Qt_5 5.7.1~20161122
 _ZNK10Qt3DRender11QSortPolicy10metaObjectEv@Qt_5 5.7.1~20161122
 _ZNK10Qt3DRender11QSortPolicy12sortTypesIntEv@Qt_5 5.7.1~20161122
 _ZNK10Qt3DRender11QSortPolicy24createNodeCreationChangeEv@Qt_5 5.7.1~20161122
 _ZNK10Qt3DRender11QSortPolicy9sortTypesEv@Qt_5 5.7.1~20161122
 _ZNK10Qt3DRender12QLayerFilter10metaObjectEv@Qt_5 5.7.1~20161122
 _ZNK10Qt3DRender12QLayerFilter24createNodeCreationChangeEv@Qt_5 5.7.1~20161122
 _ZNK10Qt3DRender12QLayerFilter6layersEv@Qt_5 5.7.1~20161122
 _ZNK10Qt3DRender12QNoDepthMask10metaObjectEv@Qt_5 5.7.1~20161122
 _ZNK10Qt3DRender12QRenderState10metaObjectEv@Qt_5 5.7.1~20161122
 _ZNK10Qt3DRender12QRenderState24createNodeCreationChangeEv@Qt_5 5.7.1~20161122
 _ZNK10Qt3DRender12QSceneLoader10metaObjectEv@Qt_5 5.7.1~20161122
 _ZNK10Qt3DRender12QSceneLoader11entityNamesEv@Qt_5 5.9.0
 _ZNK10Qt3DRender12QSceneLoader24createNodeCreationChangeEv@Qt_5 5.7.1~20161122
 _ZNK10Qt3DRender12QSceneLoader6entityERK7QString@Qt_5 5.9.0
 _ZNK10Qt3DRender12QSceneLoader6sourceEv@Qt_5 5.7.1~20161122
 _ZNK10Qt3DRender12QSceneLoader6statusEv@Qt_5 5.7.1~20161122
 _ZNK10Qt3DRender12QSceneLoader9componentERK7QStringNS0_13ComponentTypeE@Qt_5 5.9.0
 _ZNK10Qt3DRender12QScissorTest10metaObjectEv@Qt_5 5.7.1~20161122
 _ZNK10Qt3DRender12QScissorTest24createNodeCreationChangeEv@Qt_5 5.7.1~20161122
 _ZNK10Qt3DRender12QScissorTest4leftEv@Qt_5 5.7.1~20161122
 _ZNK10Qt3DRender12QScissorTest5widthEv@Qt_5 5.7.1~20161122
 _ZNK10Qt3DRender12QScissorTest6bottomEv@Qt_5 5.7.1~20161122
 _ZNK10Qt3DRender12QScissorTest6heightEv@Qt_5 5.7.1~20161122
 _ZNK10Qt3DRender12QStencilMask10metaObjectEv@Qt_5 5.7.1~20161122
 _ZNK10Qt3DRender12QStencilMask14backOutputMaskEv@Qt_5 5.7.1~20161122
 _ZNK10Qt3DRender12QStencilMask15frontOutputMaskEv@Qt_5 5.7.1~20161122
 _ZNK10Qt3DRender12QStencilMask24createNodeCreationChangeEv@Qt_5 5.7.1~20161122
 _ZNK10Qt3DRender12QStencilTest10metaObjectEv@Qt_5 5.7.1~20161122
 _ZNK10Qt3DRender12QStencilTest24createNodeCreationChangeEv@Qt_5 5.7.1~20161122
 _ZNK10Qt3DRender12QStencilTest4backEv@Qt_5 5.7.1~20161122
 _ZNK10Qt3DRender12QStencilTest5frontEv@Qt_5 5.7.1~20161122
 _ZNK10Qt3DRender12QTextureData14comparisonModeEv@Qt_5 5.7.1~20161122
 _ZNK10Qt3DRender12QTextureData17maximumAnisotropyEv@Qt_5 5.7.1~20161122
 _ZNK10Qt3DRender12QTextureData18comparisonFunctionEv@Qt_5 5.7.1~20161122
 _ZNK10Qt3DRender12QTextureData18minificationFilterEv@Qt_5 5.7.1~20161122
 _ZNK10Qt3DRender12QTextureData19magnificationFilterEv@Qt_5 5.7.1~20161122
 _ZNK10Qt3DRender12QTextureData29isAutoMipMapGenerationEnabledEv@Qt_5 5.7.1~20161122
 _ZNK10Qt3DRender12QTextureData5depthEv@Qt_5 5.7.1~20161122
 _ZNK10Qt3DRender12QTextureData5widthEv@Qt_5 5.7.1~20161122
 _ZNK10Qt3DRender12QTextureData6formatEv@Qt_5 5.7.1~20161122
 _ZNK10Qt3DRender12QTextureData6heightEv@Qt_5 5.7.1~20161122
 _ZNK10Qt3DRender12QTextureData6layersEv@Qt_5 5.7.1~20161122
 _ZNK10Qt3DRender12QTextureData6targetEv@Qt_5 5.7.1~20161122
 _ZNK10Qt3DRender12QTextureData9imageDataEv@Qt_5 5.7.1~20161122
 _ZNK10Qt3DRender12QTextureData9wrapModeXEv@Qt_5 5.7.1~20161122
 _ZNK10Qt3DRender12QTextureData9wrapModeYEv@Qt_5 5.7.1~20161122
 _ZNK10Qt3DRender12QTextureData9wrapModeZEv@Qt_5 5.7.1~20161122
 _ZNK10Qt3DRender13QClearBuffers10clearColorEv@Qt_5 5.7.1~20161122
 _ZNK10Qt3DRender13QClearBuffers10metaObjectEv@Qt_5 5.7.1~20161122
 _ZNK10Qt3DRender13QClearBuffers11colorBufferEv@Qt_5 5.7.1~20161122
 _ZNK10Qt3DRender13QClearBuffers15clearDepthValueEv@Qt_5 5.7.1~20161122
 _ZNK10Qt3DRender13QClearBuffers17clearStencilValueEv@Qt_5 5.7.1~20161122
 _ZNK10Qt3DRender13QClearBuffers24createNodeCreationChangeEv@Qt_5 5.7.1~20161122
 _ZNK10Qt3DRender13QClearBuffers7buffersEv@Qt_5 5.7.1~20161122
 _ZNK10Qt3DRender13QObjectPicker10metaObjectEv@Qt_5 5.7.1~20161122
 _ZNK10Qt3DRender13QObjectPicker13containsMouseEv@Qt_5 5.7.1~20161122
 _ZNK10Qt3DRender13QObjectPicker13isDragEnabledEv@Qt_5 5.7.1~20161122
 _ZNK10Qt3DRender13QObjectPicker14isHoverEnabledEv@Qt_5 5.7.1~20161122
 _ZNK10Qt3DRender13QObjectPicker24createNodeCreationChangeEv@Qt_5 5.7.1~20161122
 _ZNK10Qt3DRender13QObjectPicker9isPressedEv@Qt_5 5.7.1~20161122
 _ZNK10Qt3DRender13QRenderAspect10metaObjectEv@Qt_5 5.7.1~20161122
 _ZNK10Qt3DRender13QRenderTarget10metaObjectEv@Qt_5 5.7.1~20161122
 _ZNK10Qt3DRender13QRenderTarget24createNodeCreationChangeEv@Qt_5 5.7.1~20161122
 _ZNK10Qt3DRender13QRenderTarget7outputsEv@Qt_5 5.7.1~20161122
 _ZNK10Qt3DRender13QTextureImage10isMirroredEv@Qt_5 5.9.0
 _ZNK10Qt3DRender13QTextureImage10metaObjectEv@Qt_5 5.7.1~20161122
 _ZNK10Qt3DRender13QTextureImage13dataGeneratorEv@Qt_5 5.7.1~20161122
 _ZNK10Qt3DRender13QTextureImage6sourceEv@Qt_5 5.7.1~20161122
 _ZNK10Qt3DRender13QTextureImage6statusEv@Qt_5 5.7.1~20161122
 _ZNK10Qt3DRender14QAbstractLight10metaObjectEv@Qt_5 5.7.1~20161122
 _ZNK10Qt3DRender14QAbstractLight24createNodeCreationChangeEv@Qt_5 5.7.1~20161122
 _ZNK10Qt3DRender14QAbstractLight4typeEv@Qt_5 5.7.1~20161122
 _ZNK10Qt3DRender14QAbstractLight5colorEv@Qt_5 5.7.1~20161122
 _ZNK10Qt3DRender14QAbstractLight9intensityEv@Qt_5 5.7.1~20161122
 _ZNK10Qt3DRender14QAlphaCoverage10metaObjectEv@Qt_5 5.7.1~20161122
 _ZNK10Qt3DRender14QBlendEquation10metaObjectEv@Qt_5 5.7.1~20161122
 _ZNK10Qt3DRender14QBlendEquation13blendFunctionEv@Qt_5 5.7.1~20161122
 _ZNK10Qt3DRender14QBlendEquation24createNodeCreationChangeEv@Qt_5 5.7.1~20161122
 _ZNK10Qt3DRender14QBufferCapture10metaObjectEv@Qt_5 5.9.0
 _ZNK10Qt3DRender14QLevelOfDetail10metaObjectEv@Qt_5 5.9.0
 _ZNK10Qt3DRender14QLevelOfDetail10thresholdsEv@Qt_5 5.9.0
 _ZNK10Qt3DRender14QLevelOfDetail12currentIndexEv@Qt_5 5.9.0
 _ZNK10Qt3DRender14QLevelOfDetail13thresholdTypeEv@Qt_5 5.9.0
 _ZNK10Qt3DRender14QLevelOfDetail14volumeOverrideEv@Qt_5 5.9.0
 _ZNK10Qt3DRender14QLevelOfDetail24createNodeCreationChangeEv@Qt_5 5.9.0
 _ZNK10Qt3DRender14QLevelOfDetail6cameraEv@Qt_5 5.9.0
 _ZNK10Qt3DRender14QMemoryBarrier10metaObjectEv@Qt_5 5.9.0
 _ZNK10Qt3DRender14QMemoryBarrier14waitOperationsEv@Qt_5 5.9.0
 _ZNK10Qt3DRender14QMemoryBarrier24createNodeCreationChangeEv@Qt_5 5.9.0
 _ZNK10Qt3DRender14QPolygonOffset10depthStepsEv@Qt_5 5.7.1~20161122
 _ZNK10Qt3DRender14QPolygonOffset10metaObjectEv@Qt_5 5.7.1~20161122
 _ZNK10Qt3DRender14QPolygonOffset11scaleFactorEv@Qt_5 5.7.1~20161122
 _ZNK10Qt3DRender14QPolygonOffset24createNodeCreationChangeEv@Qt_5 5.7.1~20161122
 _ZNK10Qt3DRender14QRenderCapture10metaObjectEv@Qt_5 5.9.0
 _ZNK10Qt3DRender14QRenderCapture24createNodeCreationChangeEv@Qt_5 5.9.0
 _ZNK10Qt3DRender14QSceneExporter10metaObjectEv@Qt_5 5.9.0
 _ZNK10Qt3DRender14QSceneExporter6errorsEv@Qt_5 5.9.0
 _ZNK10Qt3DRender14QSceneImporter10metaObjectEv@Qt_5 5.9.0
 _ZNK10Qt3DRender14QSceneImporter6errorsEv@Qt_5 5.9.0
 _ZNK10Qt3DRender14QSceneImporter6statusEv@Qt_5 5.9.0
 _ZNK10Qt3DRender14QShaderProgram10metaObjectEv@Qt_5 5.7.1~20161122
 _ZNK10Qt3DRender14QShaderProgram10shaderCodeENS0_10ShaderTypeE@Qt_5 5.7.1~20161122
 _ZNK10Qt3DRender14QShaderProgram16vertexShaderCodeEv@Qt_5 5.7.1~20161122
 _ZNK10Qt3DRender14QShaderProgram17computeShaderCodeEv@Qt_5 5.7.1~20161122
 _ZNK10Qt3DRender14QShaderProgram18fragmentShaderCodeEv@Qt_5 5.7.1~20161122
 _ZNK10Qt3DRender14QShaderProgram18geometryShaderCodeEv@Qt_5 5.7.1~20161122
 _ZNK10Qt3DRender14QShaderProgram24createNodeCreationChangeEv@Qt_5 5.7.1~20161122
 _ZNK10Qt3DRender14QShaderProgram29tessellationControlShaderCodeEv@Qt_5 5.7.1~20161122
 _ZNK10Qt3DRender14QShaderProgram32tessellationEvaluationShaderCodeEv@Qt_5 5.7.1~20161122
 _ZNK10Qt3DRender14QShaderProgram3logEv@Qt_5 5.9.0
 _ZNK10Qt3DRender14QShaderProgram6statusEv@Qt_5 5.9.0
 _ZNK10Qt3DRender14QTextureBuffer10metaObjectEv@Qt_5 5.7.1~20161122
 _ZNK10Qt3DRender14QTextureLoader10isMirroredEv@Qt_5 5.9.0
 _ZNK10Qt3DRender14QTextureLoader10metaObjectEv@Qt_5 5.7.1~20161122
 _ZNK10Qt3DRender14QTextureLoader6sourceEv@Qt_5 5.7.1~20161122
 _ZNK10Qt3DRender15QCameraSelector10metaObjectEv@Qt_5 5.7.1~20161122
 _ZNK10Qt3DRender15QCameraSelector24createNodeCreationChangeEv@Qt_5 5.7.1~20161122
 _ZNK10Qt3DRender15QCameraSelector6cameraEv@Qt_5 5.7.1~20161122
 _ZNK10Qt3DRender15QComputeCommand10metaObjectEv@Qt_5 5.7.1~20161122
 _ZNK10Qt3DRender15QComputeCommand10workGroupXEv@Qt_5 5.7.1~20161122
 _ZNK10Qt3DRender15QComputeCommand10workGroupYEv@Qt_5 5.7.1~20161122
 _ZNK10Qt3DRender15QComputeCommand10workGroupZEv@Qt_5 5.7.1~20161122
 _ZNK10Qt3DRender15QComputeCommand24createNodeCreationChangeEv@Qt_5 5.7.1~20161122
 _ZNK10Qt3DRender15QFrameGraphNode10metaObjectEv@Qt_5 5.7.1~20161122
 _ZNK10Qt3DRender15QFrameGraphNode20parentFrameGraphNodeEv@Qt_5 5.7.1~20161122
 _ZNK10Qt3DRender15QFrameGraphNode24createNodeCreationChangeEv@Qt_5 5.9.0
 _ZNK10Qt3DRender15QFrustumCulling10metaObjectEv@Qt_5 5.7.1~20161122
 _ZNK10Qt3DRender15QRenderSettings10metaObjectEv@Qt_5 5.7.1~20161122
 _ZNK10Qt3DRender15QRenderSettings12renderPolicyEv@Qt_5 5.7.1~20161122
 _ZNK10Qt3DRender15QRenderSettings16activeFrameGraphEv@Qt_5 5.7.1~20161122
 _ZNK10Qt3DRender15QRenderSettings24createNodeCreationChangeEv@Qt_5 5.7.1~20161122
 _ZNK10Qt3DRender15QRenderStateSet10metaObjectEv@Qt_5 5.7.1~20161122
 _ZNK10Qt3DRender15QRenderStateSet12renderStatesEv@Qt_5 5.7.1~20161122
 _ZNK10Qt3DRender15QRenderStateSet24createNodeCreationChangeEv@Qt_5 5.7.1~20161122
 _ZNK10Qt3DRender15QTexture1DArray10metaObjectEv@Qt_5 5.7.1~20161122
 _ZNK10Qt3DRender15QTexture2DArray10metaObjectEv@Qt_5 5.7.1~20161122
 _ZNK10Qt3DRender15QTextureCubeMap10metaObjectEv@Qt_5 5.7.1~20161122
 _ZNK10Qt3DRender16QAbstractTexture10metaObjectEv@Qt_5 5.7.1~20161122
 _ZNK10Qt3DRender16QAbstractTexture13dataGeneratorEv@Qt_5 5.7.1~20161122
 _ZNK10Qt3DRender16QAbstractTexture13textureImagesEv@Qt_5 5.7.1~20161122
 _ZNK10Qt3DRender16QAbstractTexture14comparisonModeEv@Qt_5 5.7.1~20161122
 _ZNK10Qt3DRender16QAbstractTexture15generateMipMapsEv@Qt_5 5.7.1~20161122
 _ZNK10Qt3DRender16QAbstractTexture17maximumAnisotropyEv@Qt_5 5.7.1~20161122
 _ZNK10Qt3DRender16QAbstractTexture18comparisonFunctionEv@Qt_5 5.7.1~20161122
 _ZNK10Qt3DRender16QAbstractTexture18minificationFilterEv@Qt_5 5.7.1~20161122
 _ZNK10Qt3DRender16QAbstractTexture19magnificationFilterEv@Qt_5 5.7.1~20161122
 _ZNK10Qt3DRender16QAbstractTexture24createNodeCreationChangeEv@Qt_5 5.7.1~20161122
 _ZNK10Qt3DRender16QAbstractTexture5depthEv@Qt_5 5.7.1~20161122
 _ZNK10Qt3DRender16QAbstractTexture5widthEv@Qt_5 5.7.1~20161122
 _ZNK10Qt3DRender16QAbstractTexture6formatEv@Qt_5 5.7.1~20161122
 _ZNK10Qt3DRender16QAbstractTexture6heightEv@Qt_5 5.7.1~20161122
 _ZNK10Qt3DRender16QAbstractTexture6layersEv@Qt_5 5.7.1~20161122
 _ZNK10Qt3DRender16QAbstractTexture6statusEv@Qt_5 5.7.1~20161122
 _ZNK10Qt3DRender16QAbstractTexture6targetEv@Qt_5 5.7.1~20161122
 _ZNK10Qt3DRender16QAbstractTexture7samplesEv@Qt_5 5.9.0
 _ZNK10Qt3DRender16QDispatchCompute10metaObjectEv@Qt_5 5.7.1~20161122
 _ZNK10Qt3DRender16QDispatchCompute10workGroupXEv@Qt_5 5.7.1~20161122
 _ZNK10Qt3DRender16QDispatchCompute10workGroupYEv@Qt_5 5.7.1~20161122
 _ZNK10Qt3DRender16QDispatchCompute10workGroupZEv@Qt_5 5.7.1~20161122
 _ZNK10Qt3DRender16QDispatchCompute24createNodeCreationChangeEv@Qt_5 5.7.1~20161122
 _ZNK10Qt3DRender16QItemModelBuffer10metaObjectEv@Qt_5 5.7.1~20161122
 _ZNK10Qt3DRender16QItemModelBuffer14attributeNamesEv@Qt_5 5.7.1~20161122
 _ZNK10Qt3DRender16QItemModelBuffer15attributeByNameE7QString@Qt_5 5.7.1~20161122
 _ZNK10Qt3DRender16QPickingSettings10metaObjectEv@Qt_5 5.7.1~20161122
 _ZNK10Qt3DRender16QPickingSettings10pickMethodEv@Qt_5 5.7.1~20161122
 _ZNK10Qt3DRender16QPickingSettings14pickResultModeEv@Qt_5 5.7.1~20161122
 _ZNK10Qt3DRender16QPickingSettings26faceOrientationPickingModeEv@Qt_5 5.9.0
 _ZNK10Qt3DRender16QSeamlessCubemap10metaObjectEv@Qt_5 5.7.1~20161122
 _ZNK10Qt3DRender16QTechniqueFilter10metaObjectEv@Qt_5 5.7.1~20161122
 _ZNK10Qt3DRender16QTechniqueFilter10parametersEv@Qt_5 5.7.1~20161122
 _ZNK10Qt3DRender16QTechniqueFilter24createNodeCreationChangeEv@Qt_5 5.7.1~20161122
 _ZNK10Qt3DRender16QTechniqueFilter8matchAllEv@Qt_5 5.7.1~20161122
 _ZNK10Qt3DRender16QTextureWrapMode10metaObjectEv@Qt_5 5.7.1~20161122
 _ZNK10Qt3DRender16QTextureWrapMode1xEv@Qt_5 5.7.1~20161122
 _ZNK10Qt3DRender16QTextureWrapMode1yEv@Qt_5 5.7.1~20161122
 _ZNK10Qt3DRender16QTextureWrapMode1zEv@Qt_5 5.7.1~20161122
 _ZNK10Qt3DRender17QDirectionalLight10metaObjectEv@Qt_5 5.7.1~20161122
 _ZNK10Qt3DRender17QDirectionalLight14worldDirectionEv@Qt_5 5.7.1~20161122
 _ZNK10Qt3DRender17QEnvironmentLight10irradianceEv@Qt_5 5.9.0
 _ZNK10Qt3DRender17QEnvironmentLight10metaObjectEv@Qt_5 5.9.0
 _ZNK10Qt3DRender17QEnvironmentLight24createNodeCreationChangeEv@Qt_5 5.9.0
 _ZNK10Qt3DRender17QEnvironmentLight8specularEv@Qt_5 5.9.0
 _ZNK10Qt3DRender17QGeometryRenderer10metaObjectEv@Qt_5 5.7.1~20161122
 _ZNK10Qt3DRender17QGeometryRenderer11firstVertexEv@Qt_5 5.7.1~20161122
 _ZNK10Qt3DRender17QGeometryRenderer11indexOffsetEv@Qt_5 5.7.1~20161122
 _ZNK10Qt3DRender17QGeometryRenderer11vertexCountEv@Qt_5 5.7.1~20161122
 _ZNK10Qt3DRender17QGeometryRenderer13firstInstanceEv@Qt_5 5.7.1~20161122
 _ZNK10Qt3DRender17QGeometryRenderer13instanceCountEv@Qt_5 5.7.1~20161122
 _ZNK10Qt3DRender17QGeometryRenderer13primitiveTypeEv@Qt_5 5.7.1~20161122
 _ZNK10Qt3DRender17QGeometryRenderer15geometryFactoryEv@Qt_5 5.7.1~20161122
 _ZNK10Qt3DRender17QGeometryRenderer16verticesPerPatchEv@Qt_5 5.7.1~20161122
 _ZNK10Qt3DRender17QGeometryRenderer17restartIndexValueEv@Qt_5 5.7.1~20161122
 _ZNK10Qt3DRender17QGeometryRenderer23primitiveRestartEnabledEv@Qt_5 5.7.1~20161122
 _ZNK10Qt3DRender17QGeometryRenderer24createNodeCreationChangeEv@Qt_5 5.7.1~20161122
 _ZNK10Qt3DRender17QGeometryRenderer8geometryEv@Qt_5 5.7.1~20161122
 _ZNK10Qt3DRender17QRenderPassFilter10metaObjectEv@Qt_5 5.7.1~20161122
 _ZNK10Qt3DRender17QRenderPassFilter10parametersEv@Qt_5 5.7.1~20161122
 _ZNK10Qt3DRender17QRenderPassFilter24createNodeCreationChangeEv@Qt_5 5.7.1~20161122
 _ZNK10Qt3DRender17QRenderPassFilter8matchAnyEv@Qt_5 5.7.1~20161122
 _ZNK10Qt3DRender17QStencilOperation10metaObjectEv@Qt_5 5.7.1~20161122
 _ZNK10Qt3DRender17QStencilOperation24createNodeCreationChangeEv@Qt_5 5.7.1~20161122
 _ZNK10Qt3DRender17QStencilOperation4backEv@Qt_5 5.7.1~20161122
 _ZNK10Qt3DRender17QStencilOperation5frontEv@Qt_5 5.7.1~20161122
 _ZNK10Qt3DRender17QTextureImageData11pixelFormatEv@Qt_5 5.7.1~20161122
 _ZNK10Qt3DRender17QTextureImageData12isCompressedEv@Qt_5 5.7.1~20161122
 _ZNK10Qt3DRender17QTextureImageData4dataEiii@Qt_5 5.7.1~20161122
 _ZNK10Qt3DRender17QTextureImageData5depthEv@Qt_5 5.7.1~20161122
 _ZNK10Qt3DRender17QTextureImageData5facesEv@Qt_5 5.7.1~20161122
 _ZNK10Qt3DRender17QTextureImageData5widthEv@Qt_5 5.7.1~20161122
 _ZNK10Qt3DRender17QTextureImageData6formatEv@Qt_5 5.7.1~20161122
 _ZNK10Qt3DRender17QTextureImageData6heightEv@Qt_5 5.7.1~20161122
 _ZNK10Qt3DRender17QTextureImageData6layersEv@Qt_5 5.7.1~20161122
 _ZNK10Qt3DRender17QTextureImageData6targetEv@Qt_5 5.7.1~20161122
 _ZNK10Qt3DRender17QTextureImageData9mipLevelsEv@Qt_5 5.7.1~20161122
 _ZNK10Qt3DRender17QTextureImageData9pixelTypeEv@Qt_5 5.7.1~20161122
 _ZNK10Qt3DRender17QTextureRectangle10metaObjectEv@Qt_5 5.7.1~20161122
 _ZNK10Qt3DRender18QGraphicsApiFilter10extensionsEv@Qt_5 5.7.1~20161122
 _ZNK10Qt3DRender18QGraphicsApiFilter10metaObjectEv@Qt_5 5.7.1~20161122
 _ZNK10Qt3DRender18QGraphicsApiFilter12majorVersionEv@Qt_5 5.7.1~20161122
 _ZNK10Qt3DRender18QGraphicsApiFilter12minorVersionEv@Qt_5 5.7.1~20161122
 _ZNK10Qt3DRender18QGraphicsApiFilter3apiEv@Qt_5 5.7.1~20161122
 _ZNK10Qt3DRender18QGraphicsApiFilter6vendorEv@Qt_5 5.7.1~20161122
 _ZNK10Qt3DRender18QGraphicsApiFilter7profileEv@Qt_5 5.7.1~20161122
 _ZNK10Qt3DRender18QPickTriangleEvent10metaObjectEv@Qt_5 5.7.1~20161122
 _ZNK10Qt3DRender18QPickTriangleEvent12vertex1IndexEv@Qt_5 5.7.1~20161122
 _ZNK10Qt3DRender18QPickTriangleEvent12vertex2IndexEv@Qt_5 5.7.1~20161122
 _ZNK10Qt3DRender18QPickTriangleEvent12vertex3IndexEv@Qt_5 5.7.1~20161122
 _ZNK10Qt3DRender18QPickTriangleEvent13triangleIndexEv@Qt_5 5.7.1~20161122
 _ZNK10Qt3DRender18QPickTriangleEvent3uvwEv@Qt_5 5.9.0
 _ZNK10Qt3DRender18QSceneExportPlugin10metaObjectEv@Qt_5 5.9.0
 _ZNK10Qt3DRender18QSceneImportPlugin10metaObjectEv@Qt_5 5.9.0
 _ZNK10Qt3DRender19QRenderCaptureReply10isCompleteEv@Qt_5 5.9.0
 _ZNK10Qt3DRender19QRenderCaptureReply10metaObjectEv@Qt_5 5.9.0
 _ZNK10Qt3DRender19QRenderCaptureReply10saveToFileERK7QString@Qt_5 5.9.0
 _ZNK10Qt3DRender19QRenderCaptureReply5imageEv@Qt_5 5.9.0
 _ZNK10Qt3DRender19QRenderCaptureReply9captureIdEv@Qt_5 5.9.0
 _ZNK10Qt3DRender19QRenderCaptureReply9saveImageERK7QString@Qt_5 5.9.0
 _ZNK10Qt3DRender19QRenderTargetOutput10metaObjectEv@Qt_5 5.7.1~20161122
 _ZNK10Qt3DRender19QRenderTargetOutput15attachmentPointEv@Qt_5 5.7.1~20161122
 _ZNK10Qt3DRender19QRenderTargetOutput24createNodeCreationChangeEv@Qt_5 5.7.1~20161122
 _ZNK10Qt3DRender19QRenderTargetOutput4faceEv@Qt_5 5.7.1~20161122
 _ZNK10Qt3DRender19QRenderTargetOutput5layerEv@Qt_5 5.7.1~20161122
 _ZNK10Qt3DRender19QRenderTargetOutput7textureEv@Qt_5 5.7.1~20161122
 _ZNK10Qt3DRender19QRenderTargetOutput8mipLevelEv@Qt_5 5.7.1~20161122
 _ZNK10Qt3DRender19QStencilTestPrivate8fillDataERNS_16QStencilTestDataE@Qt_5 5.9.2
 _ZNK10Qt3DRender20QLevelOfDetailSwitch10metaObjectEv@Qt_5 5.9.0
 _ZNK10Qt3DRender20QPaintedTextureImage10metaObjectEv@Qt_5 5.9.0
 _ZNK10Qt3DRender20QPaintedTextureImage13dataGeneratorEv@Qt_5 5.9.0
 _ZNK10Qt3DRender20QPaintedTextureImage4sizeEv@Qt_5 5.9.0
 _ZNK10Qt3DRender20QPaintedTextureImage5widthEv@Qt_5 5.9.0
 _ZNK10Qt3DRender20QPaintedTextureImage6heightEv@Qt_5 5.9.0
 _ZNK10Qt3DRender20QTextureCubeMapArray10metaObjectEv@Qt_5 5.7.1~20161122
 _ZNK10Qt3DRender21QAbstractTextureImage10metaObjectEv@Qt_5 5.7.1~20161122
 _ZNK10Qt3DRender21QAbstractTextureImage24createNodeCreationChangeEv@Qt_5 5.7.1~20161122
 _ZNK10Qt3DRender21QAbstractTextureImage4faceEv@Qt_5 5.7.1~20161122
 _ZNK10Qt3DRender21QAbstractTextureImage5layerEv@Qt_5 5.7.1~20161122
 _ZNK10Qt3DRender21QAbstractTextureImage8mipLevelEv@Qt_5 5.7.1~20161122
 _ZNK10Qt3DRender21QRenderTargetSelector10metaObjectEv@Qt_5 5.7.1~20161122
 _ZNK10Qt3DRender21QRenderTargetSelector24createNodeCreationChangeEv@Qt_5 5.7.1~20161122
 _ZNK10Qt3DRender21QRenderTargetSelector6targetEv@Qt_5 5.7.1~20161122
 _ZNK10Qt3DRender21QRenderTargetSelector7outputsEv@Qt_5 5.7.1~20161122
 _ZNK10Qt3DRender21QStencilTestArguments10metaObjectEv@Qt_5 5.7.1~20161122
 _ZNK10Qt3DRender21QStencilTestArguments14comparisonMaskEv@Qt_5 5.7.1~20161122
 _ZNK10Qt3DRender21QStencilTestArguments14referenceValueEv@Qt_5 5.7.1~20161122
 _ZNK10Qt3DRender21QStencilTestArguments15stencilFunctionEv@Qt_5 5.7.1~20161122
 _ZNK10Qt3DRender21QStencilTestArguments8faceModeEv@Qt_5 5.7.1~20161122
 _ZNK10Qt3DRender21QTexture2DMultisample10metaObjectEv@Qt_5 5.7.1~20161122
 _ZNK10Qt3DRender22QGeometryLoaderFactory10metaObjectEv@Qt_5 5.9.0
 _ZNK10Qt3DRender22QRenderSurfaceSelector10metaObjectEv@Qt_5 5.7.1~20161122
 _ZNK10Qt3DRender22QRenderSurfaceSelector17surfacePixelRatioEv@Qt_5 5.7.1~20161122
 _ZNK10Qt3DRender22QRenderSurfaceSelector24createNodeCreationChangeEv@Qt_5 5.7.1~20161122
 _ZNK10Qt3DRender22QRenderSurfaceSelector24externalRenderTargetSizeEv@Qt_5 5.7.1~20161122
 _ZNK10Qt3DRender22QRenderSurfaceSelector7surfaceEv@Qt_5 5.7.1~20161122
 _ZNK10Qt3DRender23QBlendEquationArguments10metaObjectEv@Qt_5 5.7.1~20161122
 _ZNK10Qt3DRender23QBlendEquationArguments11bufferIndexEv@Qt_5 5.7.1~20161122
 _ZNK10Qt3DRender23QBlendEquationArguments11sourceAlphaEv@Qt_5 5.7.1~20161122
 _ZNK10Qt3DRender23QBlendEquationArguments14destinationRgbEv@Qt_5 5.7.1~20161122
 _ZNK10Qt3DRender23QBlendEquationArguments16destinationAlphaEv@Qt_5 5.7.1~20161122
 _ZNK10Qt3DRender23QBlendEquationArguments24createNodeCreationChangeEv@Qt_5 5.7.1~20161122
 _ZNK10Qt3DRender23QBlendEquationArguments9sourceRgbEv@Qt_5 5.7.1~20161122
 _ZNK10Qt3DRender24QMultiSampleAntiAliasing10metaObjectEv@Qt_5 5.7.1~20161122
 _ZNK10Qt3DRender24QStencilOperationPrivate8fillDataERNS_21QStencilOperationDataE@Qt_5 5.9.2
 _ZNK10Qt3DRender26QStencilOperationArguments10metaObjectEv@Qt_5 5.7.1~20161122
 _ZNK10Qt3DRender26QStencilOperationArguments21allTestsPassOperationEv@Qt_5 5.7.1~20161122
 _ZNK10Qt3DRender26QStencilOperationArguments25depthTestFailureOperationEv@Qt_5 5.7.1~20161122
 _ZNK10Qt3DRender26QStencilOperationArguments27stencilTestFailureOperationEv@Qt_5 5.7.1~20161122
 _ZNK10Qt3DRender26QStencilOperationArguments8faceModeEv@Qt_5 5.7.1~20161122
 _ZNK10Qt3DRender26QTexture2DMultisampleArray10metaObjectEv@Qt_5 5.7.1~20161122
 _ZNK10Qt3DRender28QLevelOfDetailBoundingSphere6centerEv@Qt_5 5.9.0
 _ZNK10Qt3DRender28QLevelOfDetailBoundingSphere6radiusEv@Qt_5 5.9.0
 _ZNK10Qt3DRender28QLevelOfDetailBoundingSphere7isEmptyEv@Qt_5 5.9.0
 _ZNK10Qt3DRender28QLevelOfDetailBoundingSphereeqERKS0_@Qt_5 5.9.0
 _ZNK10Qt3DRender28QLevelOfDetailBoundingSphereneERKS0_@Qt_5 5.9.0
 _ZNK10Qt3DRender32QFrameGraphNodeCreatedChangeBase22parentFrameGraphNodeIdEv@Qt_5 5.9.0
 _ZNK10Qt3DRender5QMesh10metaObjectEv@Qt_5 5.7.1~20161122
 _ZNK10Qt3DRender5QMesh6sourceEv@Qt_5 5.7.1~20161122
 _ZNK10Qt3DRender5QMesh8meshNameEv@Qt_5 5.7.1~20161122
 _ZNK10Qt3DRender6QLayer10metaObjectEv@Qt_5 5.7.1~20161122
 _ZNK10Qt3DRender6Render11BackendNode8rendererEv@Qt_5 5.9.0
 _ZNK10Qt3DRender6Render11ShaderCache19shaderIdsForProgramEj@Qt_5 5.9.0
 _ZNK10Qt3DRender6Render11ShaderCache22getShaderProgramForDNAEj@Qt_5 5.7.1~20161122
 (optional=templinst)_ZNK10Qt3DRender6Render12NodeManagers7managerINS0_10CameraLensENS0_13CameraManagerEEEPT0_v@Qt_5 5.7.1~20161122
 (optional=templinst)_ZNK10Qt3DRender6Render12NodeManagers7managerINS0_10RenderPassENS0_17RenderPassManagerEEEPT0_v@Qt_5_PRIVATE_API 5.7.1~20161122
 (optional=templinst)_ZNK10Qt3DRender6Render12NodeManagers7managerINS0_10ShaderDataENS0_17ShaderDataManagerEEEPT0_v@Qt_5_PRIVATE_API 5.7.1~20161122
 (optional=templinst)_ZNK10Qt3DRender6Render12NodeManagers7managerINS0_12ObjectPickerENS0_19ObjectPickerManagerEEEPT0_v@Qt_5_PRIVATE_API 5.7.1~20161122
 (optional=templinst)_ZNK10Qt3DRender6Render12NodeManagers7managerINS0_12RenderTargetENS0_19RenderTargetManagerEEEPT0_v@Qt_5_PRIVATE_API 5.9.0
 (optional=templinst)_ZNK10Qt3DRender6Render12NodeManagers7managerINS0_12TextureImageENS0_19TextureImageManagerEEEPT0_v@Qt_5_PRIVATE_API 5.9.0
 (optional=templinst)_ZNK10Qt3DRender6Render12NodeManagers7managerINS0_13LevelOfDetailENS0_20LevelOfDetailManagerEEEPT0_v@Qt_5_PRIVATE_API 5.9.0
 (optional=templinst)_ZNK10Qt3DRender6Render12NodeManagers7managerINS0_14ComputeCommandENS0_21ComputeCommandManagerEEEPT0_v@Qt_5_PRIVATE_API 5.7.1~20161122
 (optional=templinst)_ZNK10Qt3DRender6Render12NodeManagers7managerINS0_15RenderStateNodeENS0_18RenderStateManagerEEEPT0_v@Qt_5_PRIVATE_API 5.7.1~20161122
 (optional=templinst)_ZNK10Qt3DRender6Render12NodeManagers7managerINS0_16EnvironmentLightENS0_23EnvironmentLightManagerEEEPT0_v@Qt_5_PRIVATE_API 5.9.0
 (optional=templinst)_ZNK10Qt3DRender6Render12NodeManagers7managerINS0_16GeometryRendererENS0_23GeometryRendererManagerEEEPT0_v@Qt_5_PRIVATE_API 5.7.1~20161122
 (optional=templinst)_ZNK10Qt3DRender6Render12NodeManagers7managerINS0_18RenderTargetOutputENS0_17AttachmentManagerEEEPT0_v@Qt_5 5.7.1~20161122
 (optional=templinst)_ZNK10Qt3DRender6Render12NodeManagers7managerINS0_23OpenGLVertexArrayObjectENS0_10VAOManagerEEEPT0_v@Qt_5 5.9.0
 (optional=templinst)_ZNK10Qt3DRender6Render12NodeManagers7managerINS0_5LayerENS0_12LayerManagerEEEPT0_v@Qt_5 5.7.1~20161122
 (optional=templinst)_ZNK10Qt3DRender6Render12NodeManagers7managerINS0_5LightENS0_12LightManagerEEEPT0_v@Qt_5_PRIVATE_API 5.7.1~20161122
 (optional=templinst)_ZNK10Qt3DRender6Render12NodeManagers7managerINS0_5SceneENS0_12SceneManagerEEEPT0_v@Qt_5_PRIVATE_API 5.7.1~20161122
 (optional=templinst)_ZNK10Qt3DRender6Render12NodeManagers7managerINS0_6BufferENS0_13BufferManagerEEEPT0_v@Qt_5_PRIVATE_API 5.7.1~20161122
 (optional=templinst)_ZNK10Qt3DRender6Render12NodeManagers7managerINS0_6EffectENS0_13EffectManagerEEEPT0_v@Qt_5_PRIVATE_API 5.9.0
 (optional=templinst)_ZNK10Qt3DRender6Render12NodeManagers7managerINS0_6EntityENS0_13EntityManagerEEEPT0_v@Qt_5_PRIVATE_API 5.7.1~20161122
 (optional=templinst)_ZNK10Qt3DRender6Render12NodeManagers7managerINS0_6ShaderENS0_13ShaderManagerEEEPT0_v@Qt_5_PRIVATE_API 5.7.1~20161122
 (optional=templinst)_ZNK10Qt3DRender6Render12NodeManagers7managerINS0_7TextureENS0_14TextureManagerEEEPT0_v@Qt_5_PRIVATE_API 5.9.0
 (optional=templinst)_ZNK10Qt3DRender6Render12NodeManagers7managerINS0_8GLBufferENS0_15GLBufferManagerEEEPT0_v@Qt_5 5.7.1~20161122
 (optional=templinst)_ZNK10Qt3DRender6Render12NodeManagers7managerINS0_8GeometryENS0_15GeometryManagerEEEPT0_v@Qt_5_PRIVATE_API 5.7.1~20161122
 (optional=templinst)_ZNK10Qt3DRender6Render12NodeManagers7managerINS0_8MaterialENS0_15MaterialManagerEEEPT0_v@Qt_5_PRIVATE_API 5.7.1~20161122
 (optional=templinst)_ZNK10Qt3DRender6Render12NodeManagers7managerINS0_9AttributeENS0_16AttributeManagerEEEPT0_v@Qt_5_PRIVATE_API 5.7.1~20161122
 (optional=templinst)_ZNK10Qt3DRender6Render12NodeManagers7managerINS0_9FilterKeyENS0_16FilterKeyManagerEEEPT0_v@Qt_5_PRIVATE_API 5.9.0
 (optional=templinst)_ZNK10Qt3DRender6Render12NodeManagers7managerINS0_9ParameterENS0_16ParameterManagerEEEPT0_v@Qt_5_PRIVATE_API 5.9.0
 (optional=templinst)_ZNK10Qt3DRender6Render12NodeManagers7managerINS0_9TechniqueENS0_16TechniqueManagerEEEPT0_v@Qt_5_PRIVATE_API 5.9.0
 (optional=templinst)_ZNK10Qt3DRender6Render12NodeManagers7managerINS0_9TransformENS0_16TransformManagerEEEPT0_v@Qt_5_PRIVATE_API 5.9.0
 (optional=templinst)_ZNK10Qt3DRender6Render12NodeManagers7managerINS_17QTextureImageDataENS0_18TextureDataManagerEEEPT0_v@Qt_5_PRIVATE_API 5.9.0
 (optional=templinst)_ZNK10Qt3DRender6Render12NodeManagers7managerIP10QMatrix4x4NS0_13MatrixManagerEEEPT0_v@Qt_5 5.7.1~20161122
 (optional=templinst)_ZNK10Qt3DRender6Render12NodeManagers7managerIPNS0_14FrameGraphNodeENS0_17FrameGraphManagerEEEPT0_v@Qt_5_PRIVATE_API 5.7.1~20161122
 _ZNK10Qt3DRender6Render13SurfaceLocker14isSurfaceValidEv@Qt_5 5.9.0
 _ZNK10Qt3DRender6Render22QRenderPluginFactoryIf10metaObjectEv@Qt_5 5.9.0
 _ZNK10Qt3DRender6Render22UpdateLevelOfDetailJob14windowViewportERK5QSizeRK6QRectF@Qt_5 5.9.0
 _ZNK10Qt3DRender6Render22UpdateLevelOfDetailJob19viewMatrixForCameraERKN8Qt3DCore7QNodeIdER10QMatrix4x4S7_@Qt_5 5.9.0
 _ZNK10Qt3DRender6Render25UpdateMeshTriangleListJob8managersEv@Qt_5 5.9.0
 _ZNK10Qt3DRender6Render28FilterCompatibleTechniqueJob7managerEv@Qt_5 5.9.0
 _ZNK10Qt3DRender6Render28FilterCompatibleTechniqueJob8rendererEv@Qt_5 5.9.0
 _ZNK10Qt3DRender6Render28UpdateShaderDataTransformJob8managersEv@Qt_5 5.9.0
 (optional=templinst)_ZNK10Qt3DRender6Render6Entity13componentUuidINS0_12ObjectPickerEEEN8Qt3DCore7QNodeIdEv@Qt_5_PRIVATE_API 5.9.0
 (optional=templinst)_ZNK10Qt3DRender6Render6Entity13componentUuidINS0_16GeometryRendererEEEN8Qt3DCore7QNodeIdEv@Qt_5_PRIVATE_API 5.9.0
 (optional=templinst)_ZNK10Qt3DRender6Render6Entity15renderComponentINS0_12ObjectPickerEEEPT_v@Qt_5_PRIVATE_API 5.9.0
 (optional=templinst)_ZNK10Qt3DRender6Render6Entity15renderComponentINS0_16GeometryRendererEEEPT_v@Qt_5_PRIVATE_API 5.9.0
 _ZNK10Qt3DRender6Render6Sphere10intersectsERKNS_10RayCasting6QRay3DEP9QVector3DS7_@Qt_5 5.9.0
 _ZNK10Qt3DRender6Render6Sphere11transformedERK10QMatrix4x4@Qt_5 5.7.1~20161122
 _ZNK10Qt3DRender6Render6Sphere2idEv@Qt_5 5.7.1~20161122
 _ZNK10Qt3DRender6Render6Sphere4typeEv@Qt_5 5.7.1~20161122
 _ZNK10Qt3DRender6Render6Sphere6centerEv@Qt_5 5.7.1~20161122
 _ZNK10Qt3DRender6Render6Sphere6radiusEv@Qt_5 5.7.1~20161122
 _ZNK10Qt3DRender6Render8Renderer11contextInfoEv@Qt_5 5.7.1~20161122
 _ZNK10Qt3DRender6Render8Renderer12nodeManagersEv@Qt_5 5.7.1~20161122
 _ZNK10Qt3DRender6Render8Renderer12shareContextEv@Qt_5 5.9.0
 _ZNK10Qt3DRender6Render8Renderer14frameGraphRootEv@Qt_5 5.7.1~20161122
 _ZNK10Qt3DRender6Render8Renderer15graphicsContextEv@Qt_5 5.9.0
 _ZNK10Qt3DRender6Render8Renderer16pendingKeyEventsEv@Qt_5 5.9.0
 _ZNK10Qt3DRender6Render8Renderer19frameAdvanceServiceEv@Qt_5 5.7.1~20161122
 _ZNK10Qt3DRender6Render8Renderer20pendingPickingEventsEv@Qt_5 5.7.1~20161122
 _ZNK10Qt3DRender6Render8Renderer22createRenderBufferJobsEv@Qt_5 5.7.1~20161122
 _ZNK10Qt3DRender6Render8Renderer26requiresVAOAttributeUpdateEPNS0_8GeometryEPNS0_13RenderCommandE@Qt_5_PRIVATE_API 5.7.1~20161122
 _ZNK10Qt3DRender6Render8Renderer4timeEv@Qt_5 5.7.1~20161122
 _ZNK10Qt3DRender6Render8Renderer8dumpInfoEv@Qt_5 5.7.1~20161122
 _ZNK10Qt3DRender6Render8Renderer8settingsEv@Qt_5 5.7.1~20161122
 _ZNK10Qt3DRender6Render8Renderer9canRenderEv@Qt_5 5.7.1~20161122
 _ZNK10Qt3DRender6Render9Technique10filterKeysEv@Qt_5 5.9.0
 _ZNK10Qt3DRender6Render9Technique10parametersEv@Qt_5 5.9.0
 _ZNK10Qt3DRender6Render9Technique11nodeManagerEv@Qt_5 5.9.0
 _ZNK10Qt3DRender6Render9Technique12renderPassesEv@Qt_5 5.9.0
 _ZNK10Qt3DRender6Render9Technique17graphicsApiFilterEv@Qt_5 5.9.0
 _ZNK10Qt3DRender6Render9Technique24isCompatibleWithRendererEv@Qt_5 5.9.0
 _ZNK10Qt3DRender7QBuffer10accessTypeEv@Qt_5 5.9.0
 _ZNK10Qt3DRender7QBuffer10isSyncDataEv@Qt_5 5.7.1~20161122
 _ZNK10Qt3DRender7QBuffer10metaObjectEv@Qt_5 5.7.1~20161122
 _ZNK10Qt3DRender7QBuffer13dataGeneratorEv@Qt_5 5.7.1~20161122
 _ZNK10Qt3DRender7QBuffer24createNodeCreationChangeEv@Qt_5 5.7.1~20161122
 _ZNK10Qt3DRender7QBuffer4dataEv@Qt_5 5.7.1~20161122
 _ZNK10Qt3DRender7QBuffer4typeEv@Qt_5 5.7.1~20161122
 _ZNK10Qt3DRender7QBuffer5usageEv@Qt_5 5.7.1~20161122
 _ZNK10Qt3DRender7QCamera10metaObjectEv@Qt_5 5.7.1~20161122
 _ZNK10Qt3DRender7QCamera10viewCenterEv@Qt_5 5.7.1~20161122
 _ZNK10Qt3DRender7QCamera10viewMatrixEv@Qt_5 5.7.1~20161122
 _ZNK10Qt3DRender7QCamera10viewVectorEv@Qt_5 5.7.1~20161122
 _ZNK10Qt3DRender7QCamera11aspectRatioEv@Qt_5 5.7.1~20161122
 _ZNK10Qt3DRender7QCamera11fieldOfViewEv@Qt_5 5.7.1~20161122
 _ZNK10Qt3DRender7QCamera11panRotationEf@Qt_5 5.7.1~20161122
 _ZNK10Qt3DRender7QCamera12rollRotationEf@Qt_5 5.7.1~20161122
 _ZNK10Qt3DRender7QCamera12tiltRotationEf@Qt_5 5.7.1~20161122
 _ZNK10Qt3DRender7QCamera14projectionTypeEv@Qt_5 5.7.1~20161122
 _ZNK10Qt3DRender7QCamera16projectionMatrixEv@Qt_5 5.7.1~20161122
 _ZNK10Qt3DRender7QCamera3topEv@Qt_5 5.7.1~20161122
 _ZNK10Qt3DRender7QCamera4leftEv@Qt_5 5.7.1~20161122
 _ZNK10Qt3DRender7QCamera4lensEv@Qt_5 5.7.1~20161122
 _ZNK10Qt3DRender7QCamera5rightEv@Qt_5 5.7.1~20161122
 _ZNK10Qt3DRender7QCamera6bottomEv@Qt_5 5.7.1~20161122
 _ZNK10Qt3DRender7QCamera8exposureEv@Qt_5 5.9.0
 _ZNK10Qt3DRender7QCamera8farPlaneEv@Qt_5 5.7.1~20161122
 _ZNK10Qt3DRender7QCamera8positionEv@Qt_5 5.7.1~20161122
 _ZNK10Qt3DRender7QCamera8rotationEfRK9QVector3D@Qt_5 5.7.1~20161122
 _ZNK10Qt3DRender7QCamera8upVectorEv@Qt_5 5.7.1~20161122
 _ZNK10Qt3DRender7QCamera9nearPlaneEv@Qt_5 5.7.1~20161122
 _ZNK10Qt3DRender7QCamera9transformEv@Qt_5 5.7.1~20161122
 _ZNK10Qt3DRender7QEffect10metaObjectEv@Qt_5 5.7.1~20161122
 _ZNK10Qt3DRender7QEffect10parametersEv@Qt_5 5.7.1~20161122
 _ZNK10Qt3DRender7QEffect10techniquesEv@Qt_5 5.7.1~20161122
 _ZNK10Qt3DRender7QEffect24createNodeCreationChangeEv@Qt_5 5.7.1~20161122
 _ZNK10Qt3DRender7QNoDraw10metaObjectEv@Qt_5 5.7.1~20161122
 _ZNK10Qt3DRender9QCullFace10metaObjectEv@Qt_5 5.7.1~20161122
 _ZNK10Qt3DRender9QCullFace24createNodeCreationChangeEv@Qt_5 5.7.1~20161122
 _ZNK10Qt3DRender9QCullFace4modeEv@Qt_5 5.7.1~20161122
 _ZNK10Qt3DRender9QGeometry10attributesEv@Qt_5 5.7.1~20161122
 _ZNK10Qt3DRender9QGeometry10metaObjectEv@Qt_5 5.7.1~20161122
 _ZNK10Qt3DRender9QGeometry24createNodeCreationChangeEv@Qt_5 5.7.1~20161122
 _ZNK10Qt3DRender9QGeometry31boundingVolumePositionAttributeEv@Qt_5 5.7.1~20161122
 _ZNK10Qt3DRender9QMaterial10metaObjectEv@Qt_5 5.7.1~20161122
 _ZNK10Qt3DRender9QMaterial10parametersEv@Qt_5 5.7.1~20161122
 _ZNK10Qt3DRender9QMaterial24createNodeCreationChangeEv@Qt_5 5.7.1~20161122
 _ZNK10Qt3DRender9QMaterial6effectEv@Qt_5 5.7.1~20161122
 _ZNK10Qt3DRender9QViewport10metaObjectEv@Qt_5 5.7.1~20161122
 _ZNK10Qt3DRender9QViewport14normalizedRectEv@Qt_5 5.7.1~20161122
 _ZNK10Qt3DRender9QViewport24createNodeCreationChangeEv@Qt_5 5.7.1~20161122
 _ZNK10Qt3DRender9QViewport5gammaEv@Qt_5 5.9.0
 _ZTIN10Qt3DRender10QAlphaTestE@Qt_5 5.7.1~20161122
 _ZTIN10Qt3DRender10QAttributeE@Qt_5 5.7.1~20161122
 _ZTIN10Qt3DRender10QClipPlaneE@Qt_5 5.7.1~20161122
 _ZTIN10Qt3DRender10QColorMaskE@Qt_5 5.7.1~20161122
 _ZTIN10Qt3DRender10QDepthTestE@Qt_5 5.7.1~20161122
 _ZTIN10Qt3DRender10QDitheringE@Qt_5 5.7.1~20161122
 _ZTIN10Qt3DRender10QFilterKeyE@Qt_5 5.7.1~20161122
 _ZTIN10Qt3DRender10QFrontFaceE@Qt_5 5.7.1~20161122
 _ZTIN10Qt3DRender10QParameterE@Qt_5 5.7.1~20161122
 _ZTIN10Qt3DRender10QPickEventE@Qt_5 5.7.1~20161122
 _ZTIN10Qt3DRender10QPointSizeE@Qt_5 5.7.1~20161122
 _ZTIN10Qt3DRender10QSpotLightE@Qt_5 5.7.1~20161122
 _ZTIN10Qt3DRender10QTechniqueE@Qt_5 5.7.1~20161122
 _ZTIN10Qt3DRender10QTexture1DE@Qt_5 5.7.1~20161122
 _ZTIN10Qt3DRender10QTexture2DE@Qt_5 5.7.1~20161122
 _ZTIN10Qt3DRender10QTexture3DE@Qt_5 5.7.1~20161122
 _ZTIN10Qt3DRender10RayCasting14BoundingSphereE@Qt_5 5.9.0
 _ZTIN10Qt3DRender10RayCasting15QBoundingVolumeE@Qt_5 5.9.0
 _ZTIN10Qt3DRender10RayCasting18QRayCastingServiceE@Qt_5 5.9.0
 _ZTIN10Qt3DRender10RayCasting23QBoundingVolumeProviderE@Qt_5 5.9.0
 _ZTIN10Qt3DRender10RayCasting30QAbstractCollisionQueryServiceE@Qt_5 5.9.0
 _ZTIN10Qt3DRender11QCameraLensE@Qt_5 5.7.1~20161122
 _ZTIN10Qt3DRender11QPointLightE@Qt_5 5.7.1~20161122
 _ZTIN10Qt3DRender11QRenderPassE@Qt_5 5.7.1~20161122
 _ZTIN10Qt3DRender11QShaderDataE@Qt_5 5.7.1~20161122
 _ZTIN10Qt3DRender11QSortPolicyE@Qt_5 5.7.1~20161122
 _ZTIN10Qt3DRender12QLayerFilterE@Qt_5 5.7.1~20161122
 _ZTIN10Qt3DRender12QMeshPrivateE@Qt_5 5.9.1
 _ZTIN10Qt3DRender12QNoDepthMaskE@Qt_5 5.7.1~20161122
 _ZTIN10Qt3DRender12QRenderStateE@Qt_5 5.7.1~20161122
 _ZTIN10Qt3DRender12QSceneLoaderE@Qt_5 5.7.1~20161122
 _ZTIN10Qt3DRender12QScissorTestE@Qt_5 5.7.1~20161122
 _ZTIN10Qt3DRender12QStencilMaskE@Qt_5 5.7.1~20161122
 _ZTIN10Qt3DRender12QStencilTestE@Qt_5 5.7.1~20161122
 _ZTIN10Qt3DRender13QClearBuffersE@Qt_5 5.7.1~20161122
 _ZTIN10Qt3DRender13QLayerPrivateE@Qt_5 5.9.1
 _ZTIN10Qt3DRender13QObjectPickerE@Qt_5 5.7.1~20161122
 _ZTIN10Qt3DRender13QRenderAspectE@Qt_5 5.7.1~20161122
 _ZTIN10Qt3DRender13QRenderTargetE@Qt_5 5.7.1~20161122
 _ZTIN10Qt3DRender13QTextureImageE@Qt_5 5.7.1~20161122
 _ZTIN10Qt3DRender14QAbstractLightE@Qt_5 5.7.1~20161122
 _ZTIN10Qt3DRender14QAlphaCoverageE@Qt_5 5.7.1~20161122
 _ZTIN10Qt3DRender14QBlendEquationE@Qt_5 5.7.1~20161122
 _ZTIN10Qt3DRender14QBufferCaptureE@Qt_5 5.9.0
 _ZTIN10Qt3DRender14QBufferPrivateE@Qt_5 5.7.1~20161122
 _ZTIN10Qt3DRender14QCameraPrivateE@Qt_5 5.9.1
 _ZTIN10Qt3DRender14QEffectPrivateE@Qt_5 5.9.1
 _ZTIN10Qt3DRender14QLevelOfDetailE@Qt_5 5.9.0
 _ZTIN10Qt3DRender14QMemoryBarrierE@Qt_5 5.9.0
 _ZTIN10Qt3DRender14QPolygonOffsetE@Qt_5 5.7.1~20161122
 _ZTIN10Qt3DRender14QRenderCaptureE@Qt_5 5.9.0
 _ZTIN10Qt3DRender14QSceneExporterE@Qt_5 5.9.0
 _ZTIN10Qt3DRender14QSceneImporterE@Qt_5 5.9.0
 _ZTIN10Qt3DRender14QShaderProgramE@Qt_5 5.7.1~20161122
 _ZTIN10Qt3DRender14QTextureBufferE@Qt_5 5.7.1~20161122
 _ZTIN10Qt3DRender14QTextureLoaderE@Qt_5 5.7.1~20161122
 _ZTIN10Qt3DRender15QCameraSelectorE@Qt_5 5.7.1~20161122
 _ZTIN10Qt3DRender15QComputeCommandE@Qt_5 5.7.1~20161122
 _ZTIN10Qt3DRender15QFrameGraphNodeE@Qt_5 5.7.1~20161122
 _ZTIN10Qt3DRender15QFrustumCullingE@Qt_5 5.7.1~20161122
 _ZTIN10Qt3DRender15QRenderSettingsE@Qt_5 5.7.1~20161122
 _ZTIN10Qt3DRender15QRenderStateSetE@Qt_5 5.7.1~20161122
 _ZTIN10Qt3DRender15QTexture1DArrayE@Qt_5 5.7.1~20161122
 _ZTIN10Qt3DRender15QTexture2DArrayE@Qt_5 5.7.1~20161122
 _ZTIN10Qt3DRender15QTextureCubeMapE@Qt_5 5.7.1~20161122
 _ZTIN10Qt3DRender16QAbstractFunctorE@Qt_5 5.7.1~20161122
 _ZTIN10Qt3DRender16QAbstractTextureE@Qt_5 5.7.1~20161122
 _ZTIN10Qt3DRender16QCullFacePrivateE@Qt_5 5.9.1
 _ZTIN10Qt3DRender16QDispatchComputeE@Qt_5 5.7.1~20161122
 _ZTIN10Qt3DRender16QGeometryFactoryE@Qt_5 5.7.1~20161122
 _ZTIN10Qt3DRender16QGeometryPrivateE@Qt_5 5.7.1~20161122
 _ZTIN10Qt3DRender16QItemModelBufferE@Qt_5 5.7.1~20161122
 _ZTIN10Qt3DRender16QMaterialPrivateE@Qt_5 5.7.1~20161122
 _ZTIN10Qt3DRender16QPickingSettingsE@Qt_5 5.7.1~20161122
 _ZTIN10Qt3DRender16QSeamlessCubemapE@Qt_5 5.7.1~20161122
 _ZTIN10Qt3DRender16QTechniqueFilterE@Qt_5 5.7.1~20161122
 _ZTIN10Qt3DRender16QTextureWrapModeE@Qt_5 5.7.1~20161122
 _ZTIN10Qt3DRender17QAttributePrivateE@Qt_5 5.7.1~20161122
 _ZTIN10Qt3DRender17QClipPlanePrivateE@Qt_5 5.9.1
 _ZTIN10Qt3DRender17QColorMaskPrivateE@Qt_5 5.9.1
 _ZTIN10Qt3DRender17QDepthTestPrivateE@Qt_5 5.9.1
 _ZTIN10Qt3DRender17QDirectionalLightE@Qt_5 5.7.1~20161122
 _ZTIN10Qt3DRender17QEnvironmentLightE@Qt_5 5.9.0
 _ZTIN10Qt3DRender17QFilterKeyPrivateE@Qt_5 5.9.1
 _ZTIN10Qt3DRender17QFrontFacePrivateE@Qt_5 5.9.1
 _ZTIN10Qt3DRender17QGeometryRendererE@Qt_5 5.7.1~20161122
 _ZTIN10Qt3DRender17QParameterPrivateE@Qt_5 5.7.1~20161122
 _ZTIN10Qt3DRender17QPickEventPrivateE@Qt_5 5.9.0
 _ZTIN10Qt3DRender17QPointSizePrivateE@Qt_5 5.9.1
 _ZTIN10Qt3DRender17QRenderPassFilterE@Qt_5 5.7.1~20161122
 _ZTIN10Qt3DRender17QSpotLightPrivateE@Qt_5 5.9.1
 _ZTIN10Qt3DRender17QStencilOperationE@Qt_5 5.7.1~20161122
 _ZTIN10Qt3DRender17QTextureGeneratorE@Qt_5 5.7.1~20161122
 _ZTIN10Qt3DRender17QTextureRectangleE@Qt_5 5.7.1~20161122
 _ZTIN10Qt3DRender18QCameraLensPrivateE@Qt_5 5.9.1
 _ZTIN10Qt3DRender18QGraphicsApiFilterE@Qt_5 5.7.1~20161122
 _ZTIN10Qt3DRender18QPickTriangleEventE@Qt_5 5.7.1~20161122
 _ZTIN10Qt3DRender18QPointLightPrivateE@Qt_5 5.9.1
 _ZTIN10Qt3DRender18QSceneExportPluginE@Qt_5 5.9.0
 _ZTIN10Qt3DRender18QSceneImportPluginE@Qt_5 5.9.0
 _ZTIN10Qt3DRender18QShaderDataPrivateE@Qt_5 5.7.1~20161122
 _ZTIN10Qt3DRender19QRenderCaptureReplyE@Qt_5 5.9.0
 _ZTIN10Qt3DRender19QRenderStatePrivateE@Qt_5 5.7.1~20161122
 _ZTIN10Qt3DRender19QRenderTargetOutputE@Qt_5 5.7.1~20161122
 _ZTIN10Qt3DRender19QSceneLoaderPrivateE@Qt_5 5.7.1~20161122
 _ZTIN10Qt3DRender19QScissorTestPrivateE@Qt_5 5.9.1
 _ZTIN10Qt3DRender19QStencilMaskPrivateE@Qt_5 5.9.1
 _ZTIN10Qt3DRender19QStencilTestPrivateE@Qt_5 5.9.1
 _ZTIN10Qt3DRender20QLevelOfDetailSwitchE@Qt_5 5.9.0
 _ZTIN10Qt3DRender20QObjectPickerPrivateE@Qt_5 5.9.1
 _ZTIN10Qt3DRender20QPaintedTextureImageE@Qt_5 5.9.0
 _ZTIN10Qt3DRender20QRenderAspectPrivateE@Qt_5 5.7.1~20161122
 _ZTIN10Qt3DRender20QRenderTargetPrivateE@Qt_5 5.9.1
 _ZTIN10Qt3DRender20QTextureCubeMapArrayE@Qt_5 5.7.1~20161122
 _ZTIN10Qt3DRender20QTextureImagePrivateE@Qt_5 5.9.1
 _ZTIN10Qt3DRender21QAbstractLightPrivateE@Qt_5 5.9.1
 _ZTIN10Qt3DRender21QAbstractTextureImageE@Qt_5 5.7.1~20161122
 _ZTIN10Qt3DRender21QBlendEquationPrivateE@Qt_5 5.9.1
 _ZTIN10Qt3DRender21QLevelOfDetailPrivateE@Qt_5 5.9.1
 _ZTIN10Qt3DRender21QPolygonOffsetPrivateE@Qt_5 5.9.1
 _ZTIN10Qt3DRender21QRenderTargetSelectorE@Qt_5 5.7.1~20161122
 _ZTIN10Qt3DRender21QStencilTestArgumentsE@Qt_5 5.7.1~20161122
 _ZTIN10Qt3DRender21QTexture2DMultisampleE@Qt_5 5.7.1~20161122
 _ZTIN10Qt3DRender21QTextureLoaderPrivateE@Qt_5 5.9.1
 _ZTIN10Qt3DRender22QComputeCommandPrivateE@Qt_5 5.9.1
 _ZTIN10Qt3DRender22QGeometryLoaderFactoryE@Qt_5 5.9.0
 _ZTIN10Qt3DRender22QRenderSettingsPrivateE@Qt_5 5.9.1
 _ZTIN10Qt3DRender22QRenderSurfaceSelectorE@Qt_5 5.7.1~20161122
 _ZTIN10Qt3DRender23PropertyReaderInterfaceE@Qt_5 5.7.1~20161122
 _ZTIN10Qt3DRender23QAbstractTexturePrivateE@Qt_5 5.9.0
 _ZTIN10Qt3DRender23QBlendEquationArgumentsE@Qt_5 5.7.1~20161122
 _ZTIN10Qt3DRender23QPickingSettingsPrivateE@Qt_5 5.9.1
 _ZTIN10Qt3DRender23QTechniqueFilterPrivateE@Qt_5 5.7.1~20161122
 _ZTIN10Qt3DRender24QDirectionalLightPrivateE@Qt_5 5.9.1
 _ZTIN10Qt3DRender24QEnvironmentLightPrivateE@Qt_5 5.9.1
 _ZTIN10Qt3DRender24QGeometryRendererPrivateE@Qt_5 5.9.1
 _ZTIN10Qt3DRender24QMultiSampleAntiAliasingE@Qt_5 5.7.1~20161122
 _ZTIN10Qt3DRender24QStencilOperationPrivateE@Qt_5 5.9.1
 _ZTIN10Qt3DRender25QGraphicsApiFilterPrivateE@Qt_5 5.9.1
 _ZTIN10Qt3DRender26QRenderTargetOutputPrivateE@Qt_5 5.9.1
 _ZTIN10Qt3DRender26QStencilOperationArgumentsE@Qt_5 5.7.1~20161122
 _ZTIN10Qt3DRender26QTexture2DMultisampleArrayE@Qt_5 5.7.1~20161122
 _ZTIN10Qt3DRender26QTextureImageDataGeneratorE@Qt_5 5.7.1~20161122
 _ZTIN10Qt3DRender27QPaintedTextureImagePrivateE@Qt_5 5.9.1
 _ZTIN10Qt3DRender28QAbstractTextureImagePrivateE@Qt_5 5.7.1~20161122
 _ZTIN10Qt3DRender28QStencilTestArgumentsPrivateE@Qt_5 5.9.1
 _ZTIN10Qt3DRender29QRenderSurfaceSelectorPrivateE@Qt_5 5.7.1~20161122
 _ZTIN10Qt3DRender30QBlendEquationArgumentsPrivateE@Qt_5 5.9.1
 _ZTIN10Qt3DRender32QFrameGraphNodeCreatedChangeBaseE@Qt_5 5.9.0
 _ZTIN10Qt3DRender33QStencilOperationArgumentsPrivateE@Qt_5 5.9.1
 _ZTIN10Qt3DRender5QMeshE@Qt_5 5.7.1~20161122
 _ZTIN10Qt3DRender6QLayerE@Qt_5 5.7.1~20161122
 _ZTIN10Qt3DRender6Render10CameraLensE@Qt_5 5.9.5
 _ZTIN10Qt3DRender6Render11BackendNodeE@Qt_5 5.9.0
 _ZTIN10Qt3DRender6Render15FrameCleanupJobE@Qt_5 5.7.1~20161122
 _ZTIN10Qt3DRender6Render16AbstractRendererE@Qt_5 5.7.1~20161122
 _ZTIN10Qt3DRender6Render16ResourceAccessorE@Qt_5 5.9.0
 _ZTIN10Qt3DRender6Render20FilterLayerEntityJobE@Qt_5 5.9.0
 _ZTIN10Qt3DRender6Render20SendBufferCaptureJobE@Qt_5 5.9.0
 _ZTIN10Qt3DRender6Render20SendRenderCaptureJobE@Qt_5 5.9.0
 _ZTIN10Qt3DRender6Render20UpdateTreeEnabledJobE@Qt_5 5.9.0
 _ZTIN10Qt3DRender6Render22QRenderPluginFactoryIfE@Qt_5 5.9.0
 _ZTIN10Qt3DRender6Render22UpdateLevelOfDetailJobE@Qt_5 5.9.0
 _ZTIN10Qt3DRender6Render23ExpandBoundingVolumeJobE@Qt_5 5.7.1~20161122
 _ZTIN10Qt3DRender6Render23UpdateWorldTransformJobE@Qt_5 5.7.1~20161122
 _ZTIN10Qt3DRender6Render25UpdateMeshTriangleListJobE@Qt_5 5.9.0
 _ZTIN10Qt3DRender6Render26CalculateBoundingVolumeJobE@Qt_5 5.7.1~20161122
 _ZTIN10Qt3DRender6Render28FilterCompatibleTechniqueJobE@Qt_5 5.9.0
 _ZTIN10Qt3DRender6Render28MaterialParameterGathererJobE@Qt_5_PRIVATE_API 5.9.0
 _ZTIN10Qt3DRender6Render28UpdateShaderDataTransformJobE@Qt_5 5.9.0
 _ZTIN10Qt3DRender6Render28UpdateWorldBoundingVolumeJobE@Qt_5 5.7.1~20161122
 _ZTIN10Qt3DRender6Render6SphereE@Qt_5 5.7.1~20161122
 _ZTIN10Qt3DRender6Render8RendererE@Qt_5 5.7.1~20161122
 _ZTIN10Qt3DRender6Render9TechniqueE@Qt_5 5.9.0
 _ZTIN10Qt3DRender7QBufferE@Qt_5 5.7.1~20161122
 _ZTIN10Qt3DRender7QCameraE@Qt_5 5.7.1~20161122
 _ZTIN10Qt3DRender7QEffectE@Qt_5 5.7.1~20161122
 _ZTIN10Qt3DRender7QNoDrawE@Qt_5 5.7.1~20161122
 _ZTIN10Qt3DRender9QCullFaceE@Qt_5 5.7.1~20161122
 _ZTIN10Qt3DRender9QGeometryE@Qt_5 5.7.1~20161122
 _ZTIN10Qt3DRender9QMaterialE@Qt_5 5.7.1~20161122
 _ZTIN10Qt3DRender9QViewportE@Qt_5 5.7.1~20161122
 _ZTIN8Qt3DCore29QNodeCreatedChangeBasePrivateE@Qt_5 5.7.1~20161122
 _ZTSN10Qt3DRender10QAlphaTestE@Qt_5 5.7.1~20161122
 _ZTSN10Qt3DRender10QAttributeE@Qt_5 5.7.1~20161122
 _ZTSN10Qt3DRender10QClipPlaneE@Qt_5 5.7.1~20161122
 _ZTSN10Qt3DRender10QColorMaskE@Qt_5 5.7.1~20161122
 _ZTSN10Qt3DRender10QDepthTestE@Qt_5 5.7.1~20161122
 _ZTSN10Qt3DRender10QDitheringE@Qt_5 5.7.1~20161122
 _ZTSN10Qt3DRender10QFilterKeyE@Qt_5 5.7.1~20161122
 _ZTSN10Qt3DRender10QFrontFaceE@Qt_5 5.7.1~20161122
 _ZTSN10Qt3DRender10QParameterE@Qt_5 5.7.1~20161122
 _ZTSN10Qt3DRender10QPickEventE@Qt_5 5.7.1~20161122
 _ZTSN10Qt3DRender10QPointSizeE@Qt_5 5.7.1~20161122
 _ZTSN10Qt3DRender10QSpotLightE@Qt_5 5.7.1~20161122
 _ZTSN10Qt3DRender10QTechniqueE@Qt_5 5.7.1~20161122
 _ZTSN10Qt3DRender10QTexture1DE@Qt_5 5.7.1~20161122
 _ZTSN10Qt3DRender10QTexture2DE@Qt_5 5.7.1~20161122
 _ZTSN10Qt3DRender10QTexture3DE@Qt_5 5.7.1~20161122
 _ZTSN10Qt3DRender10RayCasting14BoundingSphereE@Qt_5 5.9.0
 _ZTSN10Qt3DRender10RayCasting15QBoundingVolumeE@Qt_5 5.9.0
 _ZTSN10Qt3DRender10RayCasting18QRayCastingServiceE@Qt_5 5.9.0
 _ZTSN10Qt3DRender10RayCasting23QBoundingVolumeProviderE@Qt_5 5.9.0
 _ZTSN10Qt3DRender10RayCasting30QAbstractCollisionQueryServiceE@Qt_5 5.9.0
 _ZTSN10Qt3DRender11QCameraLensE@Qt_5 5.7.1~20161122
 _ZTSN10Qt3DRender11QPointLightE@Qt_5 5.7.1~20161122
 _ZTSN10Qt3DRender11QRenderPassE@Qt_5 5.7.1~20161122
 _ZTSN10Qt3DRender11QShaderDataE@Qt_5 5.7.1~20161122
 _ZTSN10Qt3DRender11QSortPolicyE@Qt_5 5.7.1~20161122
 _ZTSN10Qt3DRender12QLayerFilterE@Qt_5 5.7.1~20161122
 _ZTSN10Qt3DRender12QMeshPrivateE@Qt_5 5.9.1
 _ZTSN10Qt3DRender12QNoDepthMaskE@Qt_5 5.7.1~20161122
 _ZTSN10Qt3DRender12QRenderStateE@Qt_5 5.7.1~20161122
 _ZTSN10Qt3DRender12QSceneLoaderE@Qt_5 5.7.1~20161122
 _ZTSN10Qt3DRender12QScissorTestE@Qt_5 5.7.1~20161122
 _ZTSN10Qt3DRender12QStencilMaskE@Qt_5 5.7.1~20161122
 _ZTSN10Qt3DRender12QStencilTestE@Qt_5 5.7.1~20161122
 _ZTSN10Qt3DRender13QClearBuffersE@Qt_5 5.7.1~20161122
 _ZTSN10Qt3DRender13QLayerPrivateE@Qt_5 5.9.1
 _ZTSN10Qt3DRender13QObjectPickerE@Qt_5 5.7.1~20161122
 _ZTSN10Qt3DRender13QRenderAspectE@Qt_5 5.7.1~20161122
 _ZTSN10Qt3DRender13QRenderTargetE@Qt_5 5.7.1~20161122
 _ZTSN10Qt3DRender13QTextureImageE@Qt_5 5.7.1~20161122
 _ZTSN10Qt3DRender14QAbstractLightE@Qt_5 5.7.1~20161122
 _ZTSN10Qt3DRender14QAlphaCoverageE@Qt_5 5.7.1~20161122
 _ZTSN10Qt3DRender14QBlendEquationE@Qt_5 5.7.1~20161122
 _ZTSN10Qt3DRender14QBufferCaptureE@Qt_5 5.9.0
 _ZTSN10Qt3DRender14QBufferPrivateE@Qt_5 5.7.1~20161122
 _ZTSN10Qt3DRender14QCameraPrivateE@Qt_5 5.9.1
 _ZTSN10Qt3DRender14QEffectPrivateE@Qt_5 5.9.1
 _ZTSN10Qt3DRender14QLevelOfDetailE@Qt_5 5.9.0
 _ZTSN10Qt3DRender14QMemoryBarrierE@Qt_5 5.9.0
 _ZTSN10Qt3DRender14QPolygonOffsetE@Qt_5 5.7.1~20161122
 _ZTSN10Qt3DRender14QRenderCaptureE@Qt_5 5.9.0
 _ZTSN10Qt3DRender14QSceneExporterE@Qt_5 5.9.0
 _ZTSN10Qt3DRender14QSceneImporterE@Qt_5 5.9.0
 _ZTSN10Qt3DRender14QShaderProgramE@Qt_5 5.7.1~20161122
 _ZTSN10Qt3DRender14QTextureBufferE@Qt_5 5.7.1~20161122
 _ZTSN10Qt3DRender14QTextureLoaderE@Qt_5 5.7.1~20161122
 _ZTSN10Qt3DRender15QCameraSelectorE@Qt_5 5.7.1~20161122
 _ZTSN10Qt3DRender15QComputeCommandE@Qt_5 5.7.1~20161122
 _ZTSN10Qt3DRender15QFrameGraphNodeE@Qt_5 5.7.1~20161122
 _ZTSN10Qt3DRender15QFrustumCullingE@Qt_5 5.7.1~20161122
 _ZTSN10Qt3DRender15QRenderSettingsE@Qt_5 5.7.1~20161122
 _ZTSN10Qt3DRender15QRenderStateSetE@Qt_5 5.7.1~20161122
 _ZTSN10Qt3DRender15QTexture1DArrayE@Qt_5 5.7.1~20161122
 _ZTSN10Qt3DRender15QTexture2DArrayE@Qt_5 5.7.1~20161122
 _ZTSN10Qt3DRender15QTextureCubeMapE@Qt_5 5.7.1~20161122
 _ZTSN10Qt3DRender16QAbstractFunctorE@Qt_5 5.7.1~20161122
 _ZTSN10Qt3DRender16QAbstractTextureE@Qt_5 5.7.1~20161122
 _ZTSN10Qt3DRender16QCullFacePrivateE@Qt_5 5.9.1
 _ZTSN10Qt3DRender16QDispatchComputeE@Qt_5 5.7.1~20161122
 _ZTSN10Qt3DRender16QGeometryFactoryE@Qt_5 5.7.1~20161122
 _ZTSN10Qt3DRender16QGeometryPrivateE@Qt_5 5.7.1~20161122
 _ZTSN10Qt3DRender16QItemModelBufferE@Qt_5 5.7.1~20161122
 _ZTSN10Qt3DRender16QMaterialPrivateE@Qt_5 5.7.1~20161122
 _ZTSN10Qt3DRender16QPickingSettingsE@Qt_5 5.7.1~20161122
 _ZTSN10Qt3DRender16QSeamlessCubemapE@Qt_5 5.7.1~20161122
 _ZTSN10Qt3DRender16QTechniqueFilterE@Qt_5 5.7.1~20161122
 _ZTSN10Qt3DRender16QTextureWrapModeE@Qt_5 5.7.1~20161122
 _ZTSN10Qt3DRender17QAttributePrivateE@Qt_5 5.7.1~20161122
 _ZTSN10Qt3DRender17QClipPlanePrivateE@Qt_5 5.9.1
 _ZTSN10Qt3DRender17QColorMaskPrivateE@Qt_5 5.9.1
 _ZTSN10Qt3DRender17QDepthTestPrivateE@Qt_5 5.9.1
 _ZTSN10Qt3DRender17QDirectionalLightE@Qt_5 5.7.1~20161122
 _ZTSN10Qt3DRender17QEnvironmentLightE@Qt_5 5.9.0
 _ZTSN10Qt3DRender17QFilterKeyPrivateE@Qt_5 5.9.1
 _ZTSN10Qt3DRender17QFrontFacePrivateE@Qt_5 5.9.1
 _ZTSN10Qt3DRender17QGeometryRendererE@Qt_5 5.7.1~20161122
 _ZTSN10Qt3DRender17QParameterPrivateE@Qt_5 5.7.1~20161122
 _ZTSN10Qt3DRender17QPickEventPrivateE@Qt_5 5.9.0
 _ZTSN10Qt3DRender17QPointSizePrivateE@Qt_5 5.9.1
 _ZTSN10Qt3DRender17QRenderPassFilterE@Qt_5 5.7.1~20161122
 _ZTSN10Qt3DRender17QSpotLightPrivateE@Qt_5 5.9.1
 _ZTSN10Qt3DRender17QStencilOperationE@Qt_5 5.7.1~20161122
 _ZTSN10Qt3DRender17QTextureGeneratorE@Qt_5 5.7.1~20161122
 _ZTSN10Qt3DRender17QTextureRectangleE@Qt_5 5.7.1~20161122
 _ZTSN10Qt3DRender18QCameraLensPrivateE@Qt_5 5.9.1
 _ZTSN10Qt3DRender18QGraphicsApiFilterE@Qt_5 5.7.1~20161122
 _ZTSN10Qt3DRender18QPickTriangleEventE@Qt_5 5.7.1~20161122
 _ZTSN10Qt3DRender18QPointLightPrivateE@Qt_5 5.9.1
 _ZTSN10Qt3DRender18QSceneExportPluginE@Qt_5 5.9.0
 _ZTSN10Qt3DRender18QSceneImportPluginE@Qt_5 5.9.0
 _ZTSN10Qt3DRender18QShaderDataPrivateE@Qt_5 5.7.1~20161122
 _ZTSN10Qt3DRender19QRenderCaptureReplyE@Qt_5 5.9.0
 _ZTSN10Qt3DRender19QRenderStatePrivateE@Qt_5 5.7.1~20161122
 _ZTSN10Qt3DRender19QRenderTargetOutputE@Qt_5 5.7.1~20161122
 _ZTSN10Qt3DRender19QSceneLoaderPrivateE@Qt_5 5.7.1~20161122
 _ZTSN10Qt3DRender19QScissorTestPrivateE@Qt_5 5.9.1
 _ZTSN10Qt3DRender19QStencilMaskPrivateE@Qt_5 5.9.1
 _ZTSN10Qt3DRender19QStencilTestPrivateE@Qt_5 5.9.1
 _ZTSN10Qt3DRender20QLevelOfDetailSwitchE@Qt_5 5.9.0
 _ZTSN10Qt3DRender20QObjectPickerPrivateE@Qt_5 5.9.1
 _ZTSN10Qt3DRender20QPaintedTextureImageE@Qt_5 5.9.0
 _ZTSN10Qt3DRender20QRenderAspectPrivateE@Qt_5 5.7.1~20161122
 _ZTSN10Qt3DRender20QRenderTargetPrivateE@Qt_5 5.9.1
 _ZTSN10Qt3DRender20QTextureCubeMapArrayE@Qt_5 5.7.1~20161122
 _ZTSN10Qt3DRender20QTextureImagePrivateE@Qt_5 5.9.1
 _ZTSN10Qt3DRender21QAbstractLightPrivateE@Qt_5 5.9.1
 _ZTSN10Qt3DRender21QAbstractTextureImageE@Qt_5 5.7.1~20161122
 _ZTSN10Qt3DRender21QBlendEquationPrivateE@Qt_5 5.9.1
 _ZTSN10Qt3DRender21QLevelOfDetailPrivateE@Qt_5 5.9.1
 _ZTSN10Qt3DRender21QPolygonOffsetPrivateE@Qt_5 5.9.1
 _ZTSN10Qt3DRender21QRenderTargetSelectorE@Qt_5 5.7.1~20161122
 _ZTSN10Qt3DRender21QStencilTestArgumentsE@Qt_5 5.7.1~20161122
 _ZTSN10Qt3DRender21QTexture2DMultisampleE@Qt_5 5.7.1~20161122
 _ZTSN10Qt3DRender21QTextureLoaderPrivateE@Qt_5 5.9.1
 _ZTSN10Qt3DRender22QComputeCommandPrivateE@Qt_5 5.9.1
 _ZTSN10Qt3DRender22QGeometryLoaderFactoryE@Qt_5 5.9.0
 _ZTSN10Qt3DRender22QRenderSettingsPrivateE@Qt_5 5.9.1
 _ZTSN10Qt3DRender22QRenderSurfaceSelectorE@Qt_5 5.7.1~20161122
 _ZTSN10Qt3DRender23PropertyReaderInterfaceE@Qt_5 5.7.1~20161122
 _ZTSN10Qt3DRender23QAbstractTexturePrivateE@Qt_5 5.9.0
 _ZTSN10Qt3DRender23QBlendEquationArgumentsE@Qt_5 5.7.1~20161122
 _ZTSN10Qt3DRender23QPickingSettingsPrivateE@Qt_5 5.9.1
 _ZTSN10Qt3DRender23QTechniqueFilterPrivateE@Qt_5 5.7.1~20161122
 _ZTSN10Qt3DRender24QDirectionalLightPrivateE@Qt_5 5.9.1
 _ZTSN10Qt3DRender24QEnvironmentLightPrivateE@Qt_5 5.9.1
 _ZTSN10Qt3DRender24QGeometryRendererPrivateE@Qt_5 5.9.1
 _ZTSN10Qt3DRender24QMultiSampleAntiAliasingE@Qt_5 5.7.1~20161122
 _ZTSN10Qt3DRender24QStencilOperationPrivateE@Qt_5 5.9.1
 _ZTSN10Qt3DRender25QGraphicsApiFilterPrivateE@Qt_5 5.9.1
 _ZTSN10Qt3DRender26QRenderTargetOutputPrivateE@Qt_5 5.9.1
 _ZTSN10Qt3DRender26QStencilOperationArgumentsE@Qt_5 5.7.1~20161122
 _ZTSN10Qt3DRender26QTexture2DMultisampleArrayE@Qt_5 5.7.1~20161122
 _ZTSN10Qt3DRender26QTextureImageDataGeneratorE@Qt_5 5.7.1~20161122
 _ZTSN10Qt3DRender27QPaintedTextureImagePrivateE@Qt_5 5.9.1
 _ZTSN10Qt3DRender28QAbstractTextureImagePrivateE@Qt_5 5.7.1~20161122
 _ZTSN10Qt3DRender28QStencilTestArgumentsPrivateE@Qt_5 5.9.1
 _ZTSN10Qt3DRender29QRenderSurfaceSelectorPrivateE@Qt_5 5.7.1~20161122
 _ZTSN10Qt3DRender30QBlendEquationArgumentsPrivateE@Qt_5 5.9.1
 _ZTSN10Qt3DRender32QFrameGraphNodeCreatedChangeBaseE@Qt_5 5.9.0
 _ZTSN10Qt3DRender33QStencilOperationArgumentsPrivateE@Qt_5 5.9.1
 _ZTSN10Qt3DRender5QMeshE@Qt_5 5.7.1~20161122
 _ZTSN10Qt3DRender6QLayerE@Qt_5 5.7.1~20161122
 _ZTSN10Qt3DRender6Render10CameraLensE@Qt_5 5.9.5
 _ZTSN10Qt3DRender6Render11BackendNodeE@Qt_5 5.9.0
 _ZTSN10Qt3DRender6Render15FrameCleanupJobE@Qt_5 5.7.1~20161122
 _ZTSN10Qt3DRender6Render16AbstractRendererE@Qt_5 5.7.1~20161122
 _ZTSN10Qt3DRender6Render16ResourceAccessorE@Qt_5 5.9.0
 _ZTSN10Qt3DRender6Render20FilterLayerEntityJobE@Qt_5 5.9.0
 _ZTSN10Qt3DRender6Render20SendBufferCaptureJobE@Qt_5 5.9.0
 _ZTSN10Qt3DRender6Render20SendRenderCaptureJobE@Qt_5 5.9.0
 _ZTSN10Qt3DRender6Render20UpdateTreeEnabledJobE@Qt_5 5.9.0
 _ZTSN10Qt3DRender6Render22QRenderPluginFactoryIfE@Qt_5 5.9.0
 _ZTSN10Qt3DRender6Render22UpdateLevelOfDetailJobE@Qt_5 5.9.0
 _ZTSN10Qt3DRender6Render23ExpandBoundingVolumeJobE@Qt_5 5.7.1~20161122
 _ZTSN10Qt3DRender6Render23UpdateWorldTransformJobE@Qt_5 5.7.1~20161122
 _ZTSN10Qt3DRender6Render25UpdateMeshTriangleListJobE@Qt_5 5.9.0
 _ZTSN10Qt3DRender6Render26CalculateBoundingVolumeJobE@Qt_5 5.7.1~20161122
 _ZTSN10Qt3DRender6Render28FilterCompatibleTechniqueJobE@Qt_5 5.9.0
 _ZTSN10Qt3DRender6Render28MaterialParameterGathererJobE@Qt_5_PRIVATE_API 5.9.0
 _ZTSN10Qt3DRender6Render28UpdateShaderDataTransformJobE@Qt_5 5.9.0
 _ZTSN10Qt3DRender6Render28UpdateWorldBoundingVolumeJobE@Qt_5 5.7.1~20161122
 _ZTSN10Qt3DRender6Render6SphereE@Qt_5 5.7.1~20161122
 _ZTSN10Qt3DRender6Render8RendererE@Qt_5 5.7.1~20161122
 _ZTSN10Qt3DRender6Render9TechniqueE@Qt_5 5.9.0
 _ZTSN10Qt3DRender7QBufferE@Qt_5 5.7.1~20161122
 _ZTSN10Qt3DRender7QCameraE@Qt_5 5.7.1~20161122
 _ZTSN10Qt3DRender7QEffectE@Qt_5 5.7.1~20161122
 _ZTSN10Qt3DRender7QNoDrawE@Qt_5 5.7.1~20161122
 _ZTSN10Qt3DRender9QCullFaceE@Qt_5 5.7.1~20161122
 _ZTSN10Qt3DRender9QGeometryE@Qt_5 5.7.1~20161122
 _ZTSN10Qt3DRender9QMaterialE@Qt_5 5.7.1~20161122
 _ZTSN10Qt3DRender9QViewportE@Qt_5 5.7.1~20161122
 _ZTSN8Qt3DCore29QNodeCreatedChangeBasePrivateE@Qt_5 5.7.1~20161122
 _ZTVN10Qt3DRender10QAlphaTestE@Qt_5 5.7.1~20161122
 _ZTVN10Qt3DRender10QAttributeE@Qt_5 5.7.1~20161122
 _ZTVN10Qt3DRender10QClipPlaneE@Qt_5 5.7.1~20161122
 _ZTVN10Qt3DRender10QColorMaskE@Qt_5 5.7.1~20161122
 _ZTVN10Qt3DRender10QDepthTestE@Qt_5 5.7.1~20161122
 _ZTVN10Qt3DRender10QDitheringE@Qt_5 5.7.1~20161122
 _ZTVN10Qt3DRender10QFilterKeyE@Qt_5 5.7.1~20161122
 _ZTVN10Qt3DRender10QFrontFaceE@Qt_5 5.7.1~20161122
 _ZTVN10Qt3DRender10QParameterE@Qt_5 5.7.1~20161122
 _ZTVN10Qt3DRender10QPickEventE@Qt_5 5.7.1~20161122
 _ZTVN10Qt3DRender10QPointSizeE@Qt_5 5.7.1~20161122
 _ZTVN10Qt3DRender10QSpotLightE@Qt_5 5.7.1~20161122
 _ZTVN10Qt3DRender10QTechniqueE@Qt_5 5.7.1~20161122
 _ZTVN10Qt3DRender10QTexture1DE@Qt_5 5.7.1~20161122
 _ZTVN10Qt3DRender10QTexture2DE@Qt_5 5.7.1~20161122
 _ZTVN10Qt3DRender10QTexture3DE@Qt_5 5.7.1~20161122
 _ZTVN10Qt3DRender10RayCasting14BoundingSphereE@Qt_5 5.9.0
 _ZTVN10Qt3DRender10RayCasting15QBoundingVolumeE@Qt_5 5.9.0
 _ZTVN10Qt3DRender10RayCasting18QRayCastingServiceE@Qt_5 5.9.0
 _ZTVN10Qt3DRender10RayCasting23QBoundingVolumeProviderE@Qt_5 5.9.0
 _ZTVN10Qt3DRender10RayCasting30QAbstractCollisionQueryServiceE@Qt_5 5.9.0
 _ZTVN10Qt3DRender11QCameraLensE@Qt_5 5.7.1~20161122
 _ZTVN10Qt3DRender11QPointLightE@Qt_5 5.7.1~20161122
 _ZTVN10Qt3DRender11QRenderPassE@Qt_5 5.7.1~20161122
 _ZTVN10Qt3DRender11QShaderDataE@Qt_5 5.7.1~20161122
 _ZTVN10Qt3DRender11QSortPolicyE@Qt_5 5.7.1~20161122
 _ZTVN10Qt3DRender12QLayerFilterE@Qt_5 5.7.1~20161122
 _ZTVN10Qt3DRender12QMeshPrivateE@Qt_5 5.9.1
 _ZTVN10Qt3DRender12QNoDepthMaskE@Qt_5 5.7.1~20161122
 _ZTVN10Qt3DRender12QRenderStateE@Qt_5 5.7.1~20161122
 _ZTVN10Qt3DRender12QSceneLoaderE@Qt_5 5.7.1~20161122
 _ZTVN10Qt3DRender12QScissorTestE@Qt_5 5.7.1~20161122
 _ZTVN10Qt3DRender12QStencilMaskE@Qt_5 5.7.1~20161122
 _ZTVN10Qt3DRender12QStencilTestE@Qt_5 5.7.1~20161122
 _ZTVN10Qt3DRender13QClearBuffersE@Qt_5 5.7.1~20161122
 _ZTVN10Qt3DRender13QLayerPrivateE@Qt_5 5.9.1
 _ZTVN10Qt3DRender13QObjectPickerE@Qt_5 5.7.1~20161122
 _ZTVN10Qt3DRender13QRenderAspectE@Qt_5 5.7.1~20161122
 _ZTVN10Qt3DRender13QRenderTargetE@Qt_5 5.7.1~20161122
 _ZTVN10Qt3DRender13QTextureImageE@Qt_5 5.7.1~20161122
 _ZTVN10Qt3DRender14QAbstractLightE@Qt_5 5.7.1~20161122
 _ZTVN10Qt3DRender14QAlphaCoverageE@Qt_5 5.7.1~20161122
 _ZTVN10Qt3DRender14QBlendEquationE@Qt_5 5.7.1~20161122
 _ZTVN10Qt3DRender14QBufferCaptureE@Qt_5 5.9.0
 _ZTVN10Qt3DRender14QBufferPrivateE@Qt_5 5.7.1~20161122
 _ZTVN10Qt3DRender14QCameraPrivateE@Qt_5 5.9.1
 _ZTVN10Qt3DRender14QEffectPrivateE@Qt_5 5.9.1
 _ZTVN10Qt3DRender14QLevelOfDetailE@Qt_5 5.9.0
 _ZTVN10Qt3DRender14QMemoryBarrierE@Qt_5 5.9.0
 _ZTVN10Qt3DRender14QPolygonOffsetE@Qt_5 5.7.1~20161122
 _ZTVN10Qt3DRender14QRenderCaptureE@Qt_5 5.9.0
 _ZTVN10Qt3DRender14QSceneExporterE@Qt_5 5.9.0
 _ZTVN10Qt3DRender14QSceneImporterE@Qt_5 5.9.0
 _ZTVN10Qt3DRender14QShaderProgramE@Qt_5 5.7.1~20161122
 _ZTVN10Qt3DRender14QTextureBufferE@Qt_5 5.7.1~20161122
 _ZTVN10Qt3DRender14QTextureLoaderE@Qt_5 5.7.1~20161122
 _ZTVN10Qt3DRender15QCameraSelectorE@Qt_5 5.7.1~20161122
 _ZTVN10Qt3DRender15QComputeCommandE@Qt_5 5.7.1~20161122
 _ZTVN10Qt3DRender15QFrameGraphNodeE@Qt_5 5.7.1~20161122
 _ZTVN10Qt3DRender15QFrustumCullingE@Qt_5 5.7.1~20161122
 _ZTVN10Qt3DRender15QRenderSettingsE@Qt_5 5.7.1~20161122
 _ZTVN10Qt3DRender15QRenderStateSetE@Qt_5 5.7.1~20161122
 _ZTVN10Qt3DRender15QTexture1DArrayE@Qt_5 5.7.1~20161122
 _ZTVN10Qt3DRender15QTexture2DArrayE@Qt_5 5.7.1~20161122
 _ZTVN10Qt3DRender15QTextureCubeMapE@Qt_5 5.7.1~20161122
 _ZTVN10Qt3DRender16QAbstractFunctorE@Qt_5 5.7.1~20161122
 _ZTVN10Qt3DRender16QAbstractTextureE@Qt_5 5.7.1~20161122
 _ZTVN10Qt3DRender16QCullFacePrivateE@Qt_5 5.9.1
 _ZTVN10Qt3DRender16QDispatchComputeE@Qt_5 5.7.1~20161122
 _ZTVN10Qt3DRender16QGeometryFactoryE@Qt_5 5.7.1~20161122
 _ZTVN10Qt3DRender16QGeometryPrivateE@Qt_5 5.7.1~20161122
 _ZTVN10Qt3DRender16QItemModelBufferE@Qt_5 5.7.1~20161122
 _ZTVN10Qt3DRender16QMaterialPrivateE@Qt_5 5.7.1~20161122
 _ZTVN10Qt3DRender16QPickingSettingsE@Qt_5 5.7.1~20161122
 _ZTVN10Qt3DRender16QSeamlessCubemapE@Qt_5 5.7.1~20161122
 _ZTVN10Qt3DRender16QTechniqueFilterE@Qt_5 5.7.1~20161122
 _ZTVN10Qt3DRender16QTextureWrapModeE@Qt_5 5.7.1~20161122
 _ZTVN10Qt3DRender17QAttributePrivateE@Qt_5 5.7.1~20161122
 _ZTVN10Qt3DRender17QClipPlanePrivateE@Qt_5 5.9.1
 _ZTVN10Qt3DRender17QColorMaskPrivateE@Qt_5 5.9.1
 _ZTVN10Qt3DRender17QDepthTestPrivateE@Qt_5 5.9.1
 _ZTVN10Qt3DRender17QDirectionalLightE@Qt_5 5.7.1~20161122
 _ZTVN10Qt3DRender17QEnvironmentLightE@Qt_5 5.9.0
 _ZTVN10Qt3DRender17QFilterKeyPrivateE@Qt_5 5.9.1
 _ZTVN10Qt3DRender17QFrontFacePrivateE@Qt_5 5.9.1
 _ZTVN10Qt3DRender17QGeometryRendererE@Qt_5 5.7.1~20161122
 _ZTVN10Qt3DRender17QParameterPrivateE@Qt_5 5.7.1~20161122
 _ZTVN10Qt3DRender17QPickEventPrivateE@Qt_5 5.9.0
 _ZTVN10Qt3DRender17QPointSizePrivateE@Qt_5 5.9.1
 _ZTVN10Qt3DRender17QRenderPassFilterE@Qt_5 5.7.1~20161122
 _ZTVN10Qt3DRender17QSpotLightPrivateE@Qt_5 5.9.1
 _ZTVN10Qt3DRender17QStencilOperationE@Qt_5 5.7.1~20161122
 _ZTVN10Qt3DRender17QTextureGeneratorE@Qt_5 5.7.1~20161122
 _ZTVN10Qt3DRender17QTextureRectangleE@Qt_5 5.7.1~20161122
 _ZTVN10Qt3DRender18QCameraLensPrivateE@Qt_5 5.9.1
 _ZTVN10Qt3DRender18QGraphicsApiFilterE@Qt_5 5.7.1~20161122
 _ZTVN10Qt3DRender18QPickTriangleEventE@Qt_5 5.7.1~20161122
 _ZTVN10Qt3DRender18QPointLightPrivateE@Qt_5 5.9.1
 _ZTVN10Qt3DRender18QSceneExportPluginE@Qt_5 5.9.0
 _ZTVN10Qt3DRender18QSceneImportPluginE@Qt_5 5.9.0
 _ZTVN10Qt3DRender18QShaderDataPrivateE@Qt_5 5.7.1~20161122
 _ZTVN10Qt3DRender19QRenderCaptureReplyE@Qt_5 5.9.0
 _ZTVN10Qt3DRender19QRenderStatePrivateE@Qt_5 5.7.1~20161122
 _ZTVN10Qt3DRender19QRenderTargetOutputE@Qt_5 5.7.1~20161122
 _ZTVN10Qt3DRender19QSceneLoaderPrivateE@Qt_5 5.7.1~20161122
 _ZTVN10Qt3DRender19QScissorTestPrivateE@Qt_5 5.9.1
 _ZTVN10Qt3DRender19QStencilMaskPrivateE@Qt_5 5.9.1
 _ZTVN10Qt3DRender19QStencilTestPrivateE@Qt_5 5.9.1
 _ZTVN10Qt3DRender20QLevelOfDetailSwitchE@Qt_5 5.9.0
 _ZTVN10Qt3DRender20QObjectPickerPrivateE@Qt_5 5.9.1
 _ZTVN10Qt3DRender20QPaintedTextureImageE@Qt_5 5.9.0
 _ZTVN10Qt3DRender20QRenderAspectPrivateE@Qt_5 5.7.1~20161122
 _ZTVN10Qt3DRender20QRenderTargetPrivateE@Qt_5 5.9.1
 _ZTVN10Qt3DRender20QTextureCubeMapArrayE@Qt_5 5.7.1~20161122
 _ZTVN10Qt3DRender20QTextureImagePrivateE@Qt_5 5.9.1
 _ZTVN10Qt3DRender21QAbstractLightPrivateE@Qt_5 5.9.1
 _ZTVN10Qt3DRender21QAbstractTextureImageE@Qt_5 5.7.1~20161122
 _ZTVN10Qt3DRender21QBlendEquationPrivateE@Qt_5 5.9.1
 _ZTVN10Qt3DRender21QLevelOfDetailPrivateE@Qt_5 5.9.1
 _ZTVN10Qt3DRender21QPolygonOffsetPrivateE@Qt_5 5.9.1
 _ZTVN10Qt3DRender21QRenderTargetSelectorE@Qt_5 5.7.1~20161122
 _ZTVN10Qt3DRender21QStencilTestArgumentsE@Qt_5 5.7.1~20161122
 _ZTVN10Qt3DRender21QTexture2DMultisampleE@Qt_5 5.7.1~20161122
 _ZTVN10Qt3DRender21QTextureLoaderPrivateE@Qt_5 5.9.1
 _ZTVN10Qt3DRender22QComputeCommandPrivateE@Qt_5 5.9.1
 _ZTVN10Qt3DRender22QGeometryLoaderFactoryE@Qt_5 5.9.0
 _ZTVN10Qt3DRender22QRenderSettingsPrivateE@Qt_5 5.9.1
 _ZTVN10Qt3DRender22QRenderSurfaceSelectorE@Qt_5 5.7.1~20161122
 _ZTVN10Qt3DRender23PropertyReaderInterfaceE@Qt_5 5.7.1~20161122
 _ZTVN10Qt3DRender23QAbstractTexturePrivateE@Qt_5 5.9.0
 _ZTVN10Qt3DRender23QBlendEquationArgumentsE@Qt_5 5.7.1~20161122
 _ZTVN10Qt3DRender23QPickingSettingsPrivateE@Qt_5 5.9.1
 _ZTVN10Qt3DRender23QTechniqueFilterPrivateE@Qt_5 5.7.1~20161122
 _ZTVN10Qt3DRender24QDirectionalLightPrivateE@Qt_5 5.9.1
 _ZTVN10Qt3DRender24QEnvironmentLightPrivateE@Qt_5 5.9.1
 _ZTVN10Qt3DRender24QGeometryRendererPrivateE@Qt_5 5.9.1
 _ZTVN10Qt3DRender24QMultiSampleAntiAliasingE@Qt_5 5.7.1~20161122
 _ZTVN10Qt3DRender24QStencilOperationPrivateE@Qt_5 5.9.1
 _ZTVN10Qt3DRender25QGraphicsApiFilterPrivateE@Qt_5 5.9.1
 _ZTVN10Qt3DRender26QRenderTargetOutputPrivateE@Qt_5 5.9.1
 _ZTVN10Qt3DRender26QStencilOperationArgumentsE@Qt_5 5.7.1~20161122
 _ZTVN10Qt3DRender26QTexture2DMultisampleArrayE@Qt_5 5.7.1~20161122
 _ZTVN10Qt3DRender26QTextureImageDataGeneratorE@Qt_5 5.7.1~20161122
 _ZTVN10Qt3DRender27QPaintedTextureImagePrivateE@Qt_5 5.9.1
 _ZTVN10Qt3DRender28QAbstractTextureImagePrivateE@Qt_5 5.7.1~20161122
 _ZTVN10Qt3DRender28QStencilTestArgumentsPrivateE@Qt_5 5.9.1
 _ZTVN10Qt3DRender29QRenderSurfaceSelectorPrivateE@Qt_5 5.7.1~20161122
 _ZTVN10Qt3DRender30QBlendEquationArgumentsPrivateE@Qt_5 5.9.1
 _ZTVN10Qt3DRender32QFrameGraphNodeCreatedChangeBaseE@Qt_5 5.9.0
 _ZTVN10Qt3DRender33QStencilOperationArgumentsPrivateE@Qt_5 5.9.1
 _ZTVN10Qt3DRender5QMeshE@Qt_5 5.7.1~20161122
 _ZTVN10Qt3DRender6QLayerE@Qt_5 5.7.1~20161122
 _ZTVN10Qt3DRender6Render10CameraLensE@Qt_5 5.9.5
 _ZTVN10Qt3DRender6Render11BackendNodeE@Qt_5 5.9.0
 _ZTVN10Qt3DRender6Render15FrameCleanupJobE@Qt_5 5.7.1~20161122
 _ZTVN10Qt3DRender6Render16ResourceAccessorE@Qt_5 5.9.0
 _ZTVN10Qt3DRender6Render20FilterLayerEntityJobE@Qt_5 5.9.0
 _ZTVN10Qt3DRender6Render20SendBufferCaptureJobE@Qt_5 5.9.0
 _ZTVN10Qt3DRender6Render20SendRenderCaptureJobE@Qt_5 5.9.0
 _ZTVN10Qt3DRender6Render20UpdateTreeEnabledJobE@Qt_5 5.9.0
 _ZTVN10Qt3DRender6Render22QRenderPluginFactoryIfE@Qt_5 5.9.0
 _ZTVN10Qt3DRender6Render22UpdateLevelOfDetailJobE@Qt_5 5.9.0
 _ZTVN10Qt3DRender6Render23ExpandBoundingVolumeJobE@Qt_5 5.7.1~20161122
 _ZTVN10Qt3DRender6Render23UpdateWorldTransformJobE@Qt_5 5.7.1~20161122
 _ZTVN10Qt3DRender6Render25UpdateMeshTriangleListJobE@Qt_5 5.9.0
 _ZTVN10Qt3DRender6Render26CalculateBoundingVolumeJobE@Qt_5 5.7.1~20161122
 _ZTVN10Qt3DRender6Render28FilterCompatibleTechniqueJobE@Qt_5 5.9.0
 _ZTVN10Qt3DRender6Render28MaterialParameterGathererJobE@Qt_5_PRIVATE_API 5.9.0
 _ZTVN10Qt3DRender6Render28UpdateShaderDataTransformJobE@Qt_5 5.9.0
 _ZTVN10Qt3DRender6Render28UpdateWorldBoundingVolumeJobE@Qt_5 5.7.1~20161122
 _ZTVN10Qt3DRender6Render6SphereE@Qt_5 5.7.1~20161122
 _ZTVN10Qt3DRender6Render8RendererE@Qt_5 5.7.1~20161122
 _ZTVN10Qt3DRender6Render9TechniqueE@Qt_5 5.9.0
 _ZTVN10Qt3DRender7QBufferE@Qt_5 5.7.1~20161122
 _ZTVN10Qt3DRender7QCameraE@Qt_5 5.7.1~20161122
 _ZTVN10Qt3DRender7QEffectE@Qt_5 5.7.1~20161122
 _ZTVN10Qt3DRender7QNoDrawE@Qt_5 5.7.1~20161122
 _ZTVN10Qt3DRender9QCullFaceE@Qt_5 5.7.1~20161122
 _ZTVN10Qt3DRender9QGeometryE@Qt_5 5.7.1~20161122
 _ZTVN10Qt3DRender9QMaterialE@Qt_5 5.7.1~20161122
 _ZTVN10Qt3DRender9QViewportE@Qt_5 5.7.1~20161122
 _ZTVN8Qt3DCore29QNodeCreatedChangeBasePrivateE@Qt_5 5.7.1~20161122
 (c++)"non-virtual thunk to Qt3DRender::QAbstractLightPrivate::~QAbstractLightPrivate()@Qt_5" 5.9.1
 (c++)"non-virtual thunk to Qt3DRender::QAbstractTextureImagePrivate::~QAbstractTextureImagePrivate()@Qt_5" 5.7.1~20161122
 (c++)"non-virtual thunk to Qt3DRender::QEnvironmentLightPrivate::~QEnvironmentLightPrivate()@Qt_5" 5.9.1
 (c++)"non-virtual thunk to Qt3DRender::QGeometryLoaderFactory::~QGeometryLoaderFactory()@Qt_5" 5.9.0
 (c++)"non-virtual thunk to Qt3DRender::QGeometryPrivate::~QGeometryPrivate()@Qt_5" 5.7.1~20161122
 (c++)"non-virtual thunk to Qt3DRender::QGeometryRendererPrivate::~QGeometryRendererPrivate()@Qt_5" 5.9.1
 (c++)"non-virtual thunk to Qt3DRender::QMaterialPrivate::~QMaterialPrivate()@Qt_5" 5.7.1~20161122
 (c++)"non-virtual thunk to Qt3DRender::QPaintedTextureImagePrivate::~QPaintedTextureImagePrivate()@Qt_5" 5.9.1
 (c++)"non-virtual thunk to Qt3DRender::QRenderAspectPrivate::~QRenderAspectPrivate()@Qt_5" 5.7.1~20161122
 (c++)"non-virtual thunk to Qt3DRender::QRenderStatePrivate::~QRenderStatePrivate()@Qt_5" 5.7.1~20161122
 (c++)"non-virtual thunk to Qt3DRender::QRenderSurfaceSelectorPrivate::~QRenderSurfaceSelectorPrivate()@Qt_5" 5.7.1~20161122
